
nios_led3.elf:     file format elf32-littlenios2
nios_led3.elf
architecture: nios2:r1, flags 0x00000112:
EXEC_P, HAS_SYMS, D_PAGED
start address 0x00020224

Program Header:
    LOAD off    0x00001000 vaddr 0x00020000 paddr 0x00020000 align 2**12
         filesz 0x00000020 memsz 0x00000020 flags r-x
    LOAD off    0x00001020 vaddr 0x00020020 paddr 0x00020020 align 2**12
         filesz 0x000188f4 memsz 0x000188f4 flags r-x
    LOAD off    0x00019914 vaddr 0x00038914 paddr 0x0003a310 align 2**12
         filesz 0x000019fc memsz 0x000019fc flags rw-
    LOAD off    0x00000d0c vaddr 0x0003bd0c paddr 0x0003bd0c align 2**12
         filesz 0x00000000 memsz 0x00000164 flags rw-

Sections:
Idx Name          Size      VMA       LMA       File off  Algn
  0 .entry        00000020  00020000  00020000  00001000  2**5
                  CONTENTS, ALLOC, LOAD, READONLY, CODE
  1 .exceptions   00000204  00020020  00020020  00001020  2**2
                  CONTENTS, ALLOC, LOAD, READONLY, CODE
  2 .text         00017e2c  00020224  00020224  00001224  2**2
                  CONTENTS, ALLOC, LOAD, READONLY, CODE
  3 .rodata       000008c4  00038050  00038050  00019050  2**2
                  CONTENTS, ALLOC, LOAD, READONLY, DATA
  4 .rwdata       000019fc  00038914  0003a310  00019914  2**2
                  CONTENTS, ALLOC, LOAD, DATA, SMALL_DATA
  5 .bss          00000164  0003bd0c  0003bd0c  0001bd0c  2**2
                  ALLOC, SMALL_DATA
  6 .onchip_mem   00000000  0003be70  0003be70  0001b310  2**0
                  CONTENTS
  7 .comment      0000002d  00000000  00000000  0001b310  2**0
                  CONTENTS, READONLY
  8 .debug_aranges 00001400  00000000  00000000  0001b340  2**3
                  CONTENTS, READONLY, DEBUGGING, OCTETS
  9 .debug_info   0003c315  00000000  00000000  0001c740  2**0
                  CONTENTS, READONLY, DEBUGGING, OCTETS
 10 .debug_abbrev 0000f31f  00000000  00000000  00058a55  2**0
                  CONTENTS, READONLY, DEBUGGING, OCTETS
 11 .debug_line   000182be  00000000  00000000  00067d74  2**0
                  CONTENTS, READONLY, DEBUGGING, OCTETS
 12 .debug_frame  00002bc4  00000000  00000000  00080034  2**2
                  CONTENTS, READONLY, DEBUGGING, OCTETS
 13 .debug_str    00002c37  00000000  00000000  00082bf8  2**0
                  CONTENTS, READONLY, DEBUGGING, OCTETS
 14 .debug_alt_sim_info 00000040  00000000  00000000  00085830  2**2
                  CONTENTS, READONLY, DEBUGGING, OCTETS
 15 .debug_ranges 00000070  00000000  00000000  00085870  2**3
                  CONTENTS, READONLY, DEBUGGING, OCTETS
 16 .debug_line_str 000026bd  00000000  00000000  000858e0  2**0
                  CONTENTS, READONLY, DEBUGGING, OCTETS
 17 .debug_loclists 0001ef39  00000000  00000000  00087f9d  2**0
                  CONTENTS, READONLY, DEBUGGING, OCTETS
 18 .debug_rnglists 00001e6c  00000000  00000000  000a6ed6  2**0
                  CONTENTS, READONLY, DEBUGGING, OCTETS
 19 .thread_model 00000003  00000000  00000000  000ac84e  2**0
                  CONTENTS, READONLY
 20 .cpu          00000003  00000000  00000000  000ac851  2**0
                  CONTENTS, READONLY
 21 .qsys         00000001  00000000  00000000  000ac854  2**0
                  CONTENTS, READONLY
 22 .simulation_enabled 00000001  00000000  00000000  000ac855  2**0
                  CONTENTS, READONLY
 23 .sysid_hash   00000004  00000000  00000000  000ac856  2**0
                  CONTENTS, READONLY
 24 .sysid_base   00000004  00000000  00000000  000ac85a  2**0
                  CONTENTS, READONLY
 25 .sysid_time   00000004  00000000  00000000  000ac85e  2**0
                  CONTENTS, READONLY
 26 .stderr_dev   00000009  00000000  00000000  000ac862  2**0
                  CONTENTS, READONLY
 27 .stdin_dev    00000009  00000000  00000000  000ac86b  2**0
                  CONTENTS, READONLY
 28 .stdout_dev   00000009  00000000  00000000  000ac874  2**0
                  CONTENTS, READONLY
 29 .sopc_system_name 00000009  00000000  00000000  000ac87d  2**0
                  CONTENTS, READONLY
 30 .quartus_project_dir 0000004e  00000000  00000000  000ac886  2**0
                  CONTENTS, READONLY
 31 .jdi          0000490b  00000000  00000000  000ac8d4  2**0
                  CONTENTS, READONLY
 32 .sopcinfo     0005aacf  00000000  00000000  000b11df  2**0
                  CONTENTS, READONLY
SYMBOL TABLE:
00020000 l    d  .entry	00000000 .entry
00020020 l    d  .exceptions	00000000 .exceptions
00020224 l    d  .text	00000000 .text
00038050 l    d  .rodata	00000000 .rodata
00038914 l    d  .rwdata	00000000 .rwdata
0003bd0c l    d  .bss	00000000 .bss
0003be70 l    d  .onchip_mem	00000000 .onchip_mem
00000000 l    d  .comment	00000000 .comment
00000000 l    d  .debug_aranges	00000000 .debug_aranges
00000000 l    d  .debug_info	00000000 .debug_info
00000000 l    d  .debug_abbrev	00000000 .debug_abbrev
00000000 l    d  .debug_line	00000000 .debug_line
00000000 l    d  .debug_frame	00000000 .debug_frame
00000000 l    d  .debug_str	00000000 .debug_str
00000000 l    d  .debug_alt_sim_info	00000000 .debug_alt_sim_info
00000000 l    d  .debug_ranges	00000000 .debug_ranges
00000000 l    d  .debug_line_str	00000000 .debug_line_str
00000000 l    d  .debug_loclists	00000000 .debug_loclists
00000000 l    d  .debug_rnglists	00000000 .debug_rnglists
00000000 l    df *ABS*	00000000 crt0.o
0002025c l       .text	00000000 alt_after_alt_main
00000000 l    df *ABS*	00000000 alt_irq_handler.c
00000000 l    df *ABS*	00000000 alt_instruction_exception_entry.c
00000000 l    df *ABS*	00000000 gpio.c
00038050 l     O .rodata	00000010 SSEG_HEX_TABLE.0
00000000 l    df *ABS*	00000000 main.c
0003bd0c l     O .bss	00000004 old.3
0003a2e4 l     O .rwdata	00000001 led_pattern.2
0003bd10 l     O .bss	00000004 last.1
0003a2e5 l     O .rwdata	00000001 led_pattern.0
00000000 l    df *ABS*	00000000 libgcc2.c
00000000 l    df *ABS*	00000000 libgcc2.c
00000000 l    df *ABS*	00000000 lib2-divmod.c
00000000 l    df *ABS*	00000000 lib2-mul.c
00000000 l    df *ABS*	00000000 libgcc2.c
00000000 l    df *ABS*	00000000 printf.c
00000000 l    df *ABS*	00000000 puts.c
00000000 l    df *ABS*	00000000 scanf.c
00000000 l    df *ABS*	00000000 strlen.c
00000000 l    df *ABS*	00000000 vfprintf.c
000232f8 l     F .text	000000c0 __sbprintf
0003822c l     O .rodata	00000010 blanks.1
0003821c l     O .rodata	00000010 zeroes.0
00000000 l    df *ABS*	00000000 vfscanf.c
00038242 l     O .rodata	00000022 basefix.0
00000000 l    df *ABS*	00000000 wsetup.c
00000000 l    df *ABS*	00000000 ctype_.c
00000000 l    df *ABS*	00000000 dtoa.c
00024eb0 l     F .text	00000220 quorem
00000000 l    df *ABS*	00000000 fflush.c
00000000 l    df *ABS*	00000000 findfp.c
00026b38 l     F .text	00000008 __fp_lock
00026b4c l     F .text	00000008 __fp_unlock
00026b54 l     F .text	00000168 __sinit.part.0
00000000 l    df *ABS*	00000000 fread.c
00000000 l    df *ABS*	00000000 mallocr.c
00000000 l    df *ABS*	00000000 fvwrite.c
00000000 l    df *ABS*	00000000 fwalk.c
00000000 l    df *ABS*	00000000 impure.c
00038914 l     O .rwdata	00000424 impure_data
00000000 l    df *ABS*	00000000 iswspace.c
00000000 l    df *ABS*	00000000 iswspace_l.c
00000000 l    df *ABS*	00000000 locale.c
00000000 l    df *ABS*	00000000 localeconv.c
00000000 l    df *ABS*	00000000 makebuf.c
00000000 l    df *ABS*	00000000 mallocr.c
00000000 l    df *ABS*	00000000 mbrtowc.c
00000000 l    df *ABS*	00000000 mbtowc_r.c
00000000 l    df *ABS*	00000000 memchr.c
00000000 l    df *ABS*	00000000 memcpy.c
00000000 l    df *ABS*	00000000 memmove.c
00000000 l    df *ABS*	00000000 memset.c
00000000 l    df *ABS*	00000000 mprec.c
0003859c l     O .rodata	0000000c p05.0
00000000 l    df *ABS*	00000000 mallocr.c
00000000 l    df *ABS*	00000000 refill.c
0002a36c l     F .text	0000001c lflush
00000000 l    df *ABS*	00000000 sbrkr.c
00000000 l    df *ABS*	00000000 sccl.c
00000000 l    df *ABS*	00000000 sprintf.c
00000000 l    df *ABS*	00000000 stdio.c
00000000 l    df *ABS*	00000000 strcmp.c
00000000 l    df *ABS*	00000000 strtod.c
000386f8 l     O .rodata	00000028 tinytens
000386e4 l     O .rodata	00000014 fpi.1
000386d0 l     O .rodata	00000014 fpinan.0
00000000 l    df *ABS*	00000000 strtol.c
0002c25c l     F .text	00000264 _strtol_l.constprop.0
00000000 l    df *ABS*	00000000 strtoll.c
0002c4fc l     F .text	000002c8 _strtoll_l.constprop.0
00000000 l    df *ABS*	00000000 strtoul.c
0002c800 l     F .text	00000270 _strtoul_l.constprop.0
00000000 l    df *ABS*	00000000 strtoull.c
0002caac l     F .text	0000031c _strtoull_l.constprop.0
00000000 l    df *ABS*	00000000 vfprintf.c
00038730 l     O .rodata	00000010 blanks.1
00038720 l     O .rodata	00000010 zeroes.0
00000000 l    df *ABS*	00000000 ungetc.c
00000000 l    df *ABS*	00000000 vfprintf.c
0002f010 l     F .text	000000f4 __sprint_r.part.0
00030394 l     F .text	000000c0 __sbprintf
00038750 l     O .rodata	00000010 blanks.1
00038740 l     O .rodata	00000010 zeroes.0
00000000 l    df *ABS*	00000000 wctomb_r.c
00000000 l    df *ABS*	00000000 writer.c
00000000 l    df *ABS*	00000000 closer.c
00000000 l    df *ABS*	00000000 assert.c
00000000 l    df *ABS*	00000000 mallocr.c
00000000 l    df *ABS*	00000000 errno.c
00000000 l    df *ABS*	00000000 fclose.c
00000000 l    df *ABS*	00000000 fiprintf.c
00000000 l    df *ABS*	00000000 fputwc.c
00000000 l    df *ABS*	00000000 fstatr.c
00000000 l    df *ABS*	00000000 gdtoa-gethex.c
00030ae8 l     F .text	000000dc rshift
00000000 l    df *ABS*	00000000 gdtoa-hexnan.c
00000000 l    df *ABS*	00000000 int_errno.c
00000000 l    df *ABS*	00000000 isattyr.c
00000000 l    df *ABS*	00000000 lnumeric.c
0003a2f8 l     O .rwdata	00000002 numempty
00000000 l    df *ABS*	00000000 lseekr.c
00000000 l    df *ABS*	00000000 readr.c
00000000 l    df *ABS*	00000000 strncmp.c
00000000 l    df *ABS*	00000000 vfprintf.c
00038904 l     O .rodata	00000010 blanks.1
000388f4 l     O .rodata	00000010 zeroes.0
00000000 l    df *ABS*	00000000 vfiprintfr_1.c
00000000 l    df *ABS*	00000000 wbuf.c
00000000 l    df *ABS*	00000000 wcrtomb.c
00000000 l    df *ABS*	00000000 abort.c
00000000 l    df *ABS*	00000000 signal.c
00000000 l    df *ABS*	00000000 signalr.c
00000000 l    df *ABS*	00000000 libgcc2.c
00000000 l    df *ABS*	00000000 libgcc2.c
00000000 l    df *ABS*	00000000 libgcc2.c
00000000 l    df *ABS*	00000000 libgcc2.c
00000000 l    df *ABS*	00000000 libgcc2.c
00000000 l    df *ABS*	00000000 lesf2.c
00000000 l    df *ABS*	00000000 unordsf2.c
00000000 l    df *ABS*	00000000 adddf3.c
00000000 l    df *ABS*	00000000 divdf3.c
00000000 l    df *ABS*	00000000 eqdf2.c
00000000 l    df *ABS*	00000000 gedf2.c
00000000 l    df *ABS*	00000000 ledf2.c
00000000 l    df *ABS*	00000000 muldf3.c
00000000 l    df *ABS*	00000000 subdf3.c
00000000 l    df *ABS*	00000000 unorddf2.c
00000000 l    df *ABS*	00000000 fixdfsi.c
00000000 l    df *ABS*	00000000 floatsidf.c
00000000 l    df *ABS*	00000000 floatunsidf.c
00000000 l    df *ABS*	00000000 truncdfsf2.c
00000000 l    df *ABS*	00000000 libgcc2.c
00000000 l    df *ABS*	00000000 alt_close.c
000364ec l     F .text	0000003c alt_get_errno
00000000 l    df *ABS*	00000000 alt_errno.c
00000000 l    df *ABS*	00000000 alt_exit.c
00000000 l    df *ABS*	00000000 alt_fstat.c
00000000 l    df *ABS*	00000000 alt_getpid.c
00000000 l    df *ABS*	00000000 alt_isatty.c
00000000 l    df *ABS*	00000000 alt_kill.c
0003663c l     F .text	0000003c alt_get_errno
00000000 l    df *ABS*	00000000 alt_load.c
00036768 l     F .text	00000068 alt_load_section
00000000 l    df *ABS*	00000000 alt_lseek.c
00036854 l     F .text	0000003c alt_get_errno
00000000 l    df *ABS*	00000000 alt_main.c
00000000 l    df *ABS*	00000000 alt_malloc_lock.c
00000000 l    df *ABS*	00000000 alt_read.c
0003697c l     F .text	0000003c alt_get_errno
00000000 l    df *ABS*	00000000 alt_sbrk.c
0003a300 l     O .rwdata	00000004 heap_end
00000000 l    df *ABS*	00000000 alt_tick.c
00000000 l    df *ABS*	00000000 alt_usleep.c
00000000 l    df *ABS*	00000000 alt_write.c
00036cdc l     F .text	0000003c alt_get_errno
00000000 l    df *ABS*	00000000 alt_sys_init.c
00000000 l    df *ABS*	00000000 altera_avalon_jtag_uart_init.c
00036f0c l     F .text	0000020c altera_avalon_jtag_uart_irq
00037118 l     F .text	000000a0 altera_avalon_jtag_uart_timeout
00000000 l    df *ABS*	00000000 altera_avalon_jtag_uart_read.c
00000000 l    df *ABS*	00000000 altera_avalon_jtag_uart_write.c
00000000 l    df *ABS*	00000000 altera_avalon_timer_sc.c
00037668 l     F .text	0000007c alt_avalon_timer_sc_irq
00000000 l    df *ABS*	00000000 alt_alarm_start.c
00000000 l    df *ABS*	00000000 alt_busy_sleep.c
00000000 l    df *ABS*	00000000 alt_dcache_flush_all.c
00000000 l    df *ABS*	00000000 alt_do_ctors.c
00000000 l    df *ABS*	00000000 alt_do_dtors.c
00000000 l    df *ABS*	00000000 alt_icache_flush_all.c
00000000 l    df *ABS*	00000000 alt_iic.c
00000000 l    df *ABS*	00000000 alt_iic_isr_register.c
00000000 l    df *ABS*	00000000 alt_irq_vars.c
00000000 l    df *ABS*	00000000 altera_nios2_gen2_irq.c
00000000 l    df *ABS*	00000000 atexit.c
00000000 l    df *ABS*	00000000 exit.c
00000000 l    df *ABS*	00000000 __atexit.c
00000000 l    df *ABS*	00000000 __call_atexit.c
0003bd44 g     O .bss	00000004 alt_instruction_exception_handler
00029cb0 g     F .text	00000070 _mprec_log10
00029d9c g     F .text	00000060 __any_on
00031770 g     F .text	00000058 _isatty_r
000385a8 g     O .rodata	00000028 __mprec_tinytens
000368d4 g     F .text	00000060 alt_main
000210dc g     F .text	000000cc _puts_r
0003bd70 g     O .bss	00000100 alt_irq
000317d0 g     F .text	00000064 _lseek_r
0003a310 g       *ABS*	00000000 __flash_rwdata_start
00034d9c g     F .text	00000080 .hidden __eqdf2
0003be70 g       *ABS*	00000000 __alt_heap_start
000334b0 g     F .text	00000070 .hidden __floatdidf
000332d4 g     F .text	00000060 _kill_r
000210a4 g     F .text	00000038 printf
00032cdc g     F .text	0000006c _wcrtomb_r
00032e44 g     F .text	00000098 _signal_r
0002a888 g     F .text	0000005c __sseek
00026e84 g     F .text	00000010 __sinit
00032b7c g     F .text	00000148 __swbuf_r
00027ba4 g     F .text	00000074 _setlocale_r
00026cbc g     F .text	00000078 __sfmoreglue
0002eff8 g     F .text	00000018 ungetc
00036958 g     F .text	00000024 __malloc_unlock
0002cdcc g     F .text	0000001c strtoull_l
0002bfd0 g     F .text	0000000c _strtod_r
00028a04 g     F .text	0000012c memmove
00026e70 g     F .text	00000014 _cleanup
00028c24 g     F .text	000000a4 _Balloc
00034e1c g     F .text	000000e8 .hidden __gtdf2
000392ac g     O .rwdata	00001038 jtag_uart
00037dc0 g     F .text	00000024 altera_nios2_gen2_irq_init
0003071c g     F .text	0000000c __errno
00020000 g     F .entry	0000000c __reset
00027c98 g     F .text	00000008 __localeconv_l
00020430 g     F .text	000000e0 led_flash_v3
00020020 g       *ABS*	00000000 __flash_exceptions_start
00030a88 g     F .text	00000060 _fstat_r
0003bd24 g     O .bss	00000004 errno
00024ce0 g     F .text	0000001c __svfscanf
0002a800 g     F .text	00000008 __seofread
00031b74 g     F .text	00001004 ___svfiprintf_internal_r
0003bd2c g     O .bss	00000004 alt_argv
000422e4 g       *ABS*	00000000 _gp
00036cac g     F .text	00000030 usleep
000365e4 g     F .text	00000020 getpid
00028904 g     F .text	00000100 memcpy
000314e0 g     F .text	00000290 __hexnan
00026b40 g     F .text	0000000c _cleanup_r
000361dc g     F .text	000000b8 .hidden __floatsidf
00034f04 g     F .text	000000e8 .hidden __ltdf2
0002c7c8 g     F .text	0000001c strtoll_l
00038050 g       *ABS*	00000000 __DTOR_END__
000211a8 g     F .text	00000010 puts
00037de4 g     F .text	00000074 alt_exception_cause_generated_bad_addr
00028758 g     F .text	00000090 mbrtowc
00024cfc g     F .text	00000050 _vfscanf_r
00029c0c g     F .text	000000a4 __ratio
00030378 g     F .text	0000001c __vfiprintf_internal
00037220 g     F .text	00000220 altera_avalon_jtag_uart_read
00021074 g     F .text	00000030 _printf_r
00020f8c g     F .text	00000064 .hidden __udivsi3
00036604 g     F .text	00000038 isatty
00032edc g     F .text	000000c4 _raise_r
00027b78 g     F .text	00000008 iswspace
0003054c g     F .text	00000064 __assert_func
000385f8 g     O .rodata	000000c8 __mprec_tens
0002c7e4 g     F .text	0000001c strtoll
00033a7c g     F .text	000000b4 .hidden __lesf2
00033338 g     F .text	00000074 .hidden __fixunsdfsi
0003bd20 g     O .bss	00000004 __malloc_top_pad
00033334 g     F .text	00000004 _getpid_r
0002ca90 g     F .text	0000001c strtoul
00027ca0 g     F .text	0000000c _localeconv_r
0002cdc8 g     F .text	00000004 _strtoull_r
00029094 g     F .text	000000b0 __i2b
0002756c g     F .text	000004cc __sfvwrite_r
00032fa0 g     F .text	000000bc __sigtramp_r
0002a554 g     F .text	00000058 _sbrk_r
00031834 g     F .text	00000064 _read_r
00030728 g     F .text	000000f8 _fclose_r
00026ab4 g     F .text	00000084 fflush
0003bd1c g     O .bss	00000004 __malloc_max_sbrked_mem
00033b7c g     F .text	0000090c .hidden __adddf3
000299bc g     F .text	000000f8 __b2d
00033520 g     F .text	0000055c .hidden __umoddi3
00036890 g     F .text	00000044 lseek
0003a2e8 g     O .rwdata	00000004 _global_impure_ptr
00029dfc g     F .text	00000570 _realloc_r
0003be70 g       *ABS*	00000000 __bss_end
00037cd8 g     F .text	000000e8 alt_iic_isr_register
0002c4c4 g     F .text	0000001c strtol_l
00036b80 g     F .text	0000012c alt_tick
000387e8 g     O .rodata	00000100 __hexdig
000208c8 g     F .text	000005d0 .hidden __udivdi3
000309ec g     F .text	00000024 _fputwc_r
000385d0 g     O .rodata	00000028 __mprec_bigtens
00028e48 g     F .text	00000138 __s2b
00032dd0 g     F .text	00000018 abort
00036294 g     F .text	00000090 .hidden __floatunsidf
000296d8 g     F .text	00000058 __mcmp
00026ea4 g     F .text	00000014 __fp_lock_all
00037c8c g     F .text	0000004c alt_ic_irq_enabled
00036adc g     F .text	000000a4 alt_alarm_stop
0002c4e0 g     F .text	0000001c strtol
0003bd40 g     O .bss	00000004 alt_irq_active
00020000 g       *ABS*	00000000 __alt_mem_onchip_mem
000200fc g     F .exceptions	000000c8 alt_irq_handler
0002a9a4 g     F .text	0000162c _strtod_l
00031490 g     F .text	00000050 __match
00037a20 g     F .text	00000020 alt_dcache_flush_all
00028f80 g     F .text	00000064 __hi0bits
0003615c g     F .text	00000080 .hidden __fixdfsi
0002bff8 g     F .text	00000020 strtod
0003a310 g       *ABS*	00000000 __ram_rwdata_end
00036d18 g     F .text	000000a0 write
00038914 g       *ABS*	00000000 __ram_rodata_end
0003659c g     F .text	00000048 fstat
00036678 g     F .text	000000f0 kill
00034f04 g     F .text	000000e8 .hidden __ledf2
0002c018 g     F .text	00000120 strtof_l
00029408 g     F .text	00000148 __pow5mult
0002f11c g     F .text	0000125c ___vfiprintf_internal_r
00020ff0 g     F .text	0000005c .hidden __umodsi3
000211f4 g     F .text	00000030 _scanf_r
0003be70 g       *ABS*	00000000 end
00036e4c g     F .text	000000c0 altera_avalon_jtag_uart_init
000201c4 g     F .exceptions	00000060 alt_instruction_exception_entry
00038050 g       *ABS*	00000000 __CTOR_LIST__
00040000 g       *ABS*	00000000 __alt_stack_pointer
000376e4 g     F .text	00000084 alt_avalon_timer_sc_init
0003649c g     F .text	00000050 .hidden __clzsi2
00037440 g     F .text	00000228 altera_avalon_jtag_uart_write
00026e94 g     F .text	00000004 __sfp_lock_acquire
00028838 g     F .text	000000cc memchr
000212bc g     F .text	00002020 ___vfprintf_internal_r
0002a6f4 g     F .text	00000054 _sprintf_r
00027270 g     F .text	000002fc _free_r
00038368 g     O .rodata	00000180 _ctype_b
00027c18 g     F .text	0000000c __locale_mb_cur_max
00037f30 g     F .text	00000120 __call_exitprocs
0003a2f0 g     O .rwdata	00000004 __malloc_sbrk_base
00020224 g     F .text	0000003c _start
0003bd34 g     O .bss	00000004 _alt_tick_rate
0002c7c4 g     F .text	00000004 _strtoll_r
00029550 g     F .text	00000188 __lshift
0003bd38 g     O .bss	00000008 _alt_nticks
00033118 g     F .text	000000a0 signal
000369b8 g     F .text	0000006c read
00036df4 g     F .text	00000058 alt_sys_init
000319ac g     F .text	000001c8 __ssprint_r
00037ea0 g     F .text	00000090 __register_exitproc
00031898 g     F .text	00000114 strncmp
00029144 g     F .text	000002c4 __multiply
000371b8 g     F .text	00000068 altera_avalon_jtag_uart_close
0002104c g     F .text	00000028 .hidden __mulsi3
00038914 g       *ABS*	00000000 __ram_rwdata_start
00038050 g       *ABS*	00000000 __ram_rodata_start
0003bd48 g     O .bss	00000028 __malloc_current_mallinfo
00029ab4 g     F .text	00000158 __d2b
0002ca70 g     F .text	00000004 _strtoul_r
000378c8 g     F .text	00000158 alt_busy_sleep
000304f4 g     F .text	00000058 _close_r
0003be70 g       *ABS*	00000000 __alt_stack_base
00024d4c g     F .text	00000164 __swsetup_r
00034488 g     F .text	00000914 .hidden __divdf3
00026d34 g     F .text	0000013c __sfp
00029d20 g     F .text	0000007c __copybits
00038ea4 g     O .rwdata	00000408 __malloc_av_
00026ea0 g     F .text	00000004 __sinit_lock_release
00034fec g     F .text	00000848 .hidden __muldf3
0002a7ac g     F .text	00000054 __sread
00027120 g     F .text	00000034 fread
00036934 g     F .text	00000024 __malloc_lock
00036a24 g     F .text	000000b8 sbrk
0002ce04 g     F .text	00001fa8 ___svfprintf_internal_r
00026a54 g     F .text	00000060 _fflush_r
000305c4 g     F .text	00000158 _calloc_r
0002cde8 g     F .text	0000001c strtoull
0003bd0c g       *ABS*	00000000 __bss_start
00028b30 g     F .text	000000f4 memset
00020740 g     F .text	00000084 main
0003bd30 g     O .bss	00000004 alt_envp
0003bd18 g     O .bss	00000004 __malloc_max_total_mem
00032cc4 g     F .text	00000018 __swbuf
00033a7c g     F .text	000000b4 .hidden __ltsf2
00026ecc g     F .text	00000254 _fread_r
00020608 g     F .text	00000138 sw_get_command_v1
0002a8e4 g     F .text	00000008 __sclose
00040000 g       *ABS*	00000000 __alt_heap_limit
00030820 g     F .text	00000010 fclose
0002c4c0 g     F .text	00000004 _strtol_r
00036324 g     F .text	00000178 .hidden __truncdfsf2
000250d0 g     F .text	0000175c _dtoa_r
00027ef8 g     F .text	000007e4 _malloc_r
00030460 g     F .text	00000030 __ascii_wctomb
0003a2fc g     O .rwdata	00000004 alt_errno
00030830 g     F .text	00000020 _fiprintf_r
0002edac g     F .text	000000c8 __submore
000331b8 g     F .text	00000060 _init_signal
00027a38 g     F .text	00000098 _fwalk
000287e8 g     F .text	0000000c _mbtowc_r
00020e98 g     F .text	00000080 .hidden __divsi3
00020364 g     F .text	00000058 jtag_uart_disp_msg_v2
00027154 g     F .text	0000011c _malloc_trim_r
00038050 g       *ABS*	00000000 __CTOR_END__
0002a8ec g     F .text	000000b8 strcmp
00038050 g       *ABS*	00000000 __flash_rodata_start
00038050 g       *ABS*	00000000 __DTOR_LIST__
0002ca74 g     F .text	0000001c strtoul_l
00033420 g     F .text	00000090 .hidden __fixunsdfdi
00034d9c g     F .text	00000080 .hidden __nedf2
00036db8 g     F .text	0000003c alt_irq_init
0002a748 g     F .text	00000064 sprintf
000380d4 g     O .rodata	00000100 .hidden __clz_tab
0003bd14 g     O .bss	00000004 _PathLocale
000333ac g     F .text	00000074 .hidden __fixdfdi
0002c138 g     F .text	00000124 strtof
0002bfdc g     F .text	0000001c strtod_l
00037e58 g     F .text	00000014 atexit
00030490 g     F .text	00000064 _write_r
00027b80 g     F .text	00000024 iswspace_l
00027c24 g     F .text	00000074 setlocale
00020510 g     F .text	000000f8 sseg_disp_msg_v1
000211b8 g     F .text	0000003c scanf
0003a2ec g     O .rwdata	00000004 _impure_ptr
0003bd28 g     O .bss	00000004 alt_argc
0002682c g     F .text	00000228 __sflush_r
000286dc g     F .text	0000007c _mbrtowc_r
000203bc g     F .text	00000074 led_flash_v2
00037aa4 g     F .text	00000064 _do_dtors
00020260 g     F .text	00000050 sseg_conv_hex
0002a388 g     F .text	000001cc __srefill_r
00020020 g       .exceptions	00000000 alt_irq_entry
000287f4 g     F .text	00000044 __ascii_mbtowc
0002995c g     F .text	00000060 __ulp
00026eb8 g     F .text	00000014 __fp_unlock_all
000388e8 g     O .rodata	0000000c _C_numeric_locale
00020020 g       *ABS*	00000000 __ram_exceptions_start
00027cac g     F .text	0000000c localeconv
00027e68 g     F .text	00000090 __swhatbuf_r
000202b0 g     F .text	0000007c sseg_disp_ptn
00037b28 g     F .text	00000050 alt_ic_isr_register
0003a310 g       *ABS*	00000000 _edata
0003be70 g       *ABS*	00000000 _end
00033b30 g     F .text	0000004c .hidden __unordsf2
00030888 g     F .text	00000164 __fputwc
00020224 g       *ABS*	00000000 __ram_exceptions_end
00024c78 g     F .text	00000068 vfscanf
00037c00 g     F .text	0000008c alt_ic_irq_disable
0002a808 g     F .text	00000080 __swrite
0003a2f4 g     O .rwdata	00000004 __malloc_trim_threshold
00037e6c g     F .text	00000034 exit
00030850 g     F .text	00000038 fiprintf
00032b78 g     F .text	00000004 _vfiprintf_r
00027ad0 g     F .text	000000a8 _fwalk_reent
00029730 g     F .text	0000022c __mdiff
00020f18 g     F .text	00000074 .hidden __modsi3
00040000 g       *ABS*	00000000 __alt_data_end
00020020 g     F .exceptions	00000000 alt_exception
00026e98 g     F .text	00000004 __sfp_lock_release
0002a5ac g     F .text	00000148 __sccl
00038264 g     O .rodata	00000101 _ctype_
00036108 g     F .text	00000054 .hidden __unorddf2
00036564 g     F .text	00000038 _exit
00037768 g     F .text	00000160 alt_alarm_start
000207c4 g     F .text	00000104 .hidden __muldi3
00027cb8 g     F .text	000001b0 __smakebuf_r
00021224 g     F .text	00000098 strlen
00032de8 g     F .text	0000005c _init_signal_r
00034e1c g     F .text	000000e8 .hidden __gedf2
00030bc4 g     F .text	000008cc __gethex
000305b0 g     F .text	00000014 __assert
0002f104 g     F .text	00000018 __sprint_r
00037b08 g     F .text	00000020 alt_icache_flush_all
000317c8 g     F .text	00000008 __numeric_load_locale
0003a30c g     O .rwdata	00000004 alt_priority_mask
00037b78 g     F .text	00000088 alt_ic_irq_enable
000232dc g     F .text	0000001c __vfprintf_internal
00030454 g     F .text	0000000c _wctomb_r
0002032c g     F .text	00000038 flashsys_init_v2
00035834 g     F .text	000008d4 .hidden __subdf3
00028fe4 g     F .text	000000b0 __lo0bits
000233b8 g     F .text	000018c0 __svfscanf_r
0003a304 g     O .rwdata	00000008 alt_alarm_list
0002ee74 g     F .text	00000184 _ungetc_r
00037a40 g     F .text	00000064 _do_ctors
00033218 g     F .text	000000bc __sigtramp
00032d48 g     F .text	00000088 wcrtomb
00036528 g     F .text	0000003c close
00038d38 g     O .rwdata	0000016c __global_locale
000367d0 g     F .text	00000084 alt_load
00030a10 g     F .text	00000078 fputwc
0003305c g     F .text	000000bc raise
00026e9c g     F .text	00000004 __sinit_lock_acquire
00028cec g     F .text	0000015c __multadd
00028cc8 g     F .text	00000024 _Bfree



Disassembly of section .entry:

00020000 <__reset>:
 * Jump to the _start entry point in the .text section if reset code
 * is allowed or if optimizing for RTL simulation.
 */
#if defined(ALT_ALLOW_CODE_AT_RESET) || defined(ALT_SIM_OPTIMIZE)
    /* Jump to the _start entry point in the .text section. */
    movhi r1, %hi(_start)
   20000:	004000b4 	movhi	at,2
    ori r1, r1, %lo(_start)
   20004:	08408914 	ori	at,at,548
    jmp r1
   20008:	0800683a 	jmp	at
	...

Disassembly of section .exceptions:

00020020 <alt_exception>:

#else /* ALT_EXCEPTION_STACK disabled */
        /* 
         * Reserve space on normal stack for registers about to be pushed.
         */
        addi  sp, sp, -76
   20020:	deffed04 	addi	sp,sp,-76
         * documentation for details).
         *
         * Leave a gap in the stack frame at 4(sp) for the muldiv handler to
         * store zero into.
         */
        stw   ra,  0(sp)
   20024:	dfc00015 	stw	ra,0(sp)
        stw   r1,   8(sp)
   20028:	d8400215 	stw	at,8(sp)
        stw   r2,  12(sp)
   2002c:	d8800315 	stw	r2,12(sp)
        stw   r3,  16(sp)
   20030:	d8c00415 	stw	r3,16(sp)
        stw   r4,  20(sp)
   20034:	d9000515 	stw	r4,20(sp)
        stw   r5,  24(sp)
   20038:	d9400615 	stw	r5,24(sp)
        stw   r6,  28(sp)
   2003c:	d9800715 	stw	r6,28(sp)
        stw   r7,  32(sp)
   20040:	d9c00815 	stw	r7,32(sp)
        rdctl r5, estatus   /* Read early to avoid usage stall */
   20044:	000b307a 	rdctl	r5,estatus
        stw   r8,  36(sp)
   20048:	da000915 	stw	r8,36(sp)
        stw   r9,  40(sp)
   2004c:	da400a15 	stw	r9,40(sp)
        stw   r10, 44(sp)
   20050:	da800b15 	stw	r10,44(sp)
        stw   r11, 48(sp)
   20054:	dac00c15 	stw	r11,48(sp)
        stw   r12, 52(sp)
   20058:	db000d15 	stw	r12,52(sp)
        stw   r13, 56(sp)
   2005c:	db400e15 	stw	r13,56(sp)
        stw   r14, 60(sp)
   20060:	db800f15 	stw	r14,60(sp)
        stw   r15, 64(sp)
   20064:	dbc01015 	stw	r15,64(sp)
        /*
         * ea-4 contains the address of the instruction being executed
         * when the exception occured. For interrupt exceptions, we will
         * will be re-issue the isntruction. Store it in 72(sp)
         */
        stw   r5,  68(sp)  /* estatus */
   20068:	d9401115 	stw	r5,68(sp)
        addi  r15, ea, -4  /* instruction that caused exception */
   2006c:	ebffff04 	addi	r15,ea,-4
        stw   r15,  72(sp)
   20070:	dbc01215 	stw	r15,72(sp)
#else
        /*
         * Test to see if the exception was a software exception or caused 
         * by an external interrupt, and vector accordingly.
         */
        rdctl r4, ipending
   20074:	0009313a 	rdctl	r4,ipending
        andi  r2, r5, 1
   20078:	2880004c 	andi	r2,r5,1
        beq   r2, zero, .Lnot_irq
   2007c:	10000326 	beq	r2,zero,2008c <alt_exception+0x6c>
        beq   r4, zero, .Lnot_irq
   20080:	20000226 	beq	r4,zero,2008c <alt_exception+0x6c>
        /*
         * Now that all necessary registers have been preserved, call 
         * alt_irq_handler() to process the interrupts.
         */

        call alt_irq_handler
   20084:	00200fc0 	call	200fc <alt_irq_handler>

        .section .exceptions.irqreturn, "xa"

        br    .Lexception_exit
   20088:	00000706 	br	200a8 <alt_exception+0x88>
         * upon completion, so we write ea (address of instruction *after*
         * the one where the exception occured) into 72(sp). The actual
         * instruction that caused the exception is written in r2, which these
         * handlers will utilize.
         */
        stw ea, 72(sp) /* EA is PC+4 so will skip over instruction causing exception */
   2008c:	df401215 	stw	ea,72(sp)
.Lunknown_16bit:
        addi.n r4, r4, 2 /* Need PC+2 to skip over instruction causing exception */
        stw r4, 72(sp)

#else /* CDX is not Enabled and all instructions are 32bits */
        ldw r2, -4(ea) /* Instruction value that caused exception */
   20090:	e8bfff17 	ldw	r2,-4(ea)
   20094:	e93fff04 	addi	r4,ea,-4
   20098:	00201c40 	call	201c4 <alt_instruction_exception_entry>
   2009c:	1000021e 	bne	r2,zero,200a8 <alt_exception+0x88>
   200a0:	ebffff04 	addi	r15,ea,-4
   200a4:	dbc01215 	stw	r15,72(sp)
        /* 
         * Restore the saved registers, so that all general purpose registers 
         * have been restored to their state at the time the interrupt occured.
         */

        ldw   r5,  68(sp)
   200a8:	d9401117 	ldw	r5,68(sp)
        ldw   ea,  72(sp)  /* This becomes the PC once eret is executed */
   200ac:	df401217 	ldw	ea,72(sp)
        ldw   ra,   0(sp)
   200b0:	dfc00017 	ldw	ra,0(sp)

        wrctl estatus, r5
   200b4:	2801707a 	wrctl	estatus,r5

        ldw   r1,   8(sp)
   200b8:	d8400217 	ldw	at,8(sp)
        ldw   r2,  12(sp)
   200bc:	d8800317 	ldw	r2,12(sp)
        ldw   r3,  16(sp)
   200c0:	d8c00417 	ldw	r3,16(sp)
        ldw   r4,  20(sp)
   200c4:	d9000517 	ldw	r4,20(sp)
        ldw   r5,  24(sp)
   200c8:	d9400617 	ldw	r5,24(sp)
        ldw   r6,  28(sp)
   200cc:	d9800717 	ldw	r6,28(sp)
        ldw   r7,  32(sp)
   200d0:	d9c00817 	ldw	r7,32(sp)

#if defined(ALT_EXCEPTION_STACK) && defined(ALT_STACK_CHECK)
        ldw   et, %gprel(alt_exception_old_stack_limit)(gp)
#endif

        ldw   r8,  36(sp)
   200d4:	da000917 	ldw	r8,36(sp)
        ldw   r9,  40(sp)
   200d8:	da400a17 	ldw	r9,40(sp)
        ldw   r10, 44(sp)
   200dc:	da800b17 	ldw	r10,44(sp)
        ldw   r11, 48(sp)
   200e0:	dac00c17 	ldw	r11,48(sp)
        ldw   r12, 52(sp)
   200e4:	db000d17 	ldw	r12,52(sp)
        ldw   r13, 56(sp)
   200e8:	db400e17 	ldw	r13,56(sp)
        ldw   r14, 60(sp)
   200ec:	db800f17 	ldw	r14,60(sp)
        ldw   r15, 64(sp)
   200f0:	dbc01017 	ldw	r15,64(sp)
        stw   et, %gprel(alt_stack_limit_value)(gp)
        stw   zero, %gprel(alt_exception_old_stack_limit)(gp)
#endif /* ALT_STACK_CHECK */
        ldw   sp,  76(sp)
#else /* ALT_EXCEPTION_STACK disabled */
        addi  sp, sp, 76
   200f4:	dec01304 	addi	sp,sp,76

        /*
         * Return to the interrupted instruction.
         */

        eret
   200f8:	ef80083a 	eret

000200fc <alt_irq_handler>:
 * instruction is present if the macro ALT_CI_INTERRUPT_VECTOR defined.
 */

void alt_irq_handler (void) __attribute__ ((section (".exceptions")));
void alt_irq_handler (void)
{
   200fc:	defff904 	addi	sp,sp,-28
   20100:	dfc00615 	stw	ra,24(sp)
   20104:	df000515 	stw	fp,20(sp)
   20108:	df000504 	addi	fp,sp,20
  
  /*
   * Notify the operating system that we are at interrupt level.
   */ 
  
  ALT_OS_INT_ENTER();
   2010c:	0001883a 	nop
#ifndef NIOS2_EIC_PRESENT
static ALT_INLINE alt_u32 ALT_ALWAYS_INLINE alt_irq_pending (void)
{
  alt_u32 active;

  NIOS2_READ_IPENDING (active);
   20110:	0005313a 	rdctl	r2,ipending
   20114:	e0bffc15 	stw	r2,-16(fp)

  return active;
   20118:	e0bffc17 	ldw	r2,-16(fp)
   * Consider the case where the high priority interupt is asserted during
   * the interrupt entry sequence for a lower priority interrupt to see why
   * this is the case.
   */

  active = alt_irq_pending ();
   2011c:	e0bfff15 	stw	r2,-4(fp)

  do
  {
    i = 0;
   20120:	e03ffd15 	stw	zero,-12(fp)
    mask = 1;
   20124:	00800044 	movi	r2,1
   20128:	e0bffe15 	stw	r2,-8(fp)
     * called to clear the interrupt condition.
     */

    do
    {
      if (active & mask)
   2012c:	e0ffff17 	ldw	r3,-4(fp)
   20130:	e0bffe17 	ldw	r2,-8(fp)
   20134:	1884703a 	and	r2,r3,r2
   20138:	10001126 	beq	r2,zero,20180 <alt_irq_handler+0x84>
      { 
#ifdef ALT_ENHANCED_INTERRUPT_API_PRESENT
        alt_irq[i].handler(alt_irq[i].context); 
   2013c:	e0bffd17 	ldw	r2,-12(fp)
   20140:	100690fa 	slli	r3,r2,3
   20144:	00800134 	movhi	r2,4
   20148:	1885883a 	add	r2,r3,r2
   2014c:	10ef5c17 	ldw	r3,-17040(r2)
   20150:	e0bffd17 	ldw	r2,-12(fp)
   20154:	100890fa 	slli	r4,r2,3
   20158:	00800134 	movhi	r2,4
   2015c:	2085883a 	add	r2,r4,r2
   20160:	10af5d17 	ldw	r2,-17036(r2)
   20164:	1009883a 	mov	r4,r2
   20168:	183ee83a 	callr	r3
#else
        alt_irq[i].handler(alt_irq[i].context, i); 
#endif
        break;
   2016c:	0001883a 	nop
  NIOS2_READ_IPENDING (active);
   20170:	0005313a 	rdctl	r2,ipending
   20174:	e0bffb15 	stw	r2,-20(fp)
  return active;
   20178:	e0bffb17 	ldw	r2,-20(fp)
   2017c:	00000706 	br	2019c <alt_irq_handler+0xa0>
      }
      mask <<= 1;
   20180:	e0bffe17 	ldw	r2,-8(fp)
   20184:	1085883a 	add	r2,r2,r2
   20188:	e0bffe15 	stw	r2,-8(fp)
      i++;
   2018c:	e0bffd17 	ldw	r2,-12(fp)
   20190:	10800044 	addi	r2,r2,1
   20194:	e0bffd15 	stw	r2,-12(fp)
      if (active & mask)
   20198:	003fe406 	br	2012c <alt_irq_handler+0x30>

    } while (1);

    active = alt_irq_pending ();
   2019c:	e0bfff15 	stw	r2,-4(fp)
    
  } while (active);
   201a0:	e0bfff17 	ldw	r2,-4(fp)
   201a4:	103fde1e 	bne	r2,zero,20120 <alt_irq_handler+0x24>

  /*
   * Notify the operating system that interrupt processing is complete.
   */ 

  ALT_OS_INT_EXIT();
   201a8:	0001883a 	nop
}
   201ac:	0001883a 	nop
   201b0:	e037883a 	mov	sp,fp
   201b4:	dfc00117 	ldw	ra,4(sp)
   201b8:	df000017 	ldw	fp,0(sp)
   201bc:	dec00204 	addi	sp,sp,8
   201c0:	f800283a 	ret

000201c4 <alt_instruction_exception_entry>:
 * that handler if it has been registered. Absent a handler, it will
 * break break or hang as discussed below.
 */
int 
alt_instruction_exception_entry (alt_u32 exception_pc)
{
   201c4:	defffb04 	addi	sp,sp,-20
   201c8:	dfc00415 	stw	ra,16(sp)
   201cc:	df000315 	stw	fp,12(sp)
   201d0:	df000304 	addi	fp,sp,12
   201d4:	e13ffd15 	stw	r4,-12(fp)
  cause = ( (cause & NIOS2_EXCEPTION_REG_CAUSE_MASK) >>
              NIOS2_EXCEPTION_REG_CAUSE_OFST );

  NIOS2_READ_BADADDR(badaddr);
#else
  cause = NIOS2_EXCEPTION_CAUSE_NOT_PRESENT;
   201d8:	00bfffc4 	movi	r2,-1
   201dc:	e0bfff15 	stw	r2,-4(fp)
  badaddr = 0;
   201e0:	e03ffe15 	stw	zero,-8(fp)
#endif /* NIOS2_HAS_EXTRA_EXCEPTION_INFO */

  if(alt_instruction_exception_handler) {
   201e4:	d0a69817 	ldw	r2,-26016(gp)
   201e8:	10000726 	beq	r2,zero,20208 <alt_instruction_exception_entry+0x44>
     * Call handler. Its return value indicates whether the exception-causing
     * instruction should be re-issued. The code that called us,
     * alt_eceptions_entry.S, will look at this value and adjust the ea
     * register as necessary
     */
    return alt_instruction_exception_handler(cause, exception_pc, badaddr);
   201ec:	d0a69817 	ldw	r2,-26016(gp)
   201f0:	e0ffff17 	ldw	r3,-4(fp)
   201f4:	e1bffe17 	ldw	r6,-8(fp)
   201f8:	e17ffd17 	ldw	r5,-12(fp)
   201fc:	1809883a 	mov	r4,r3
   20200:	103ee83a 	callr	r2
   20204:	00000206 	br	20210 <alt_instruction_exception_entry+0x4c>
   *    (a peripheral which negates its interrupt output before its
   *    interrupt handler has been executed will cause spurious interrupts)
   */
  else {
#ifdef NIOS2_HAS_DEBUG_STUB
    NIOS2_BREAK();
   20208:	003da03a 	break	0
      ;
#endif /* NIOS2_HAS_DEBUG_STUB */
  }

  /* We should not get here. Remove compiler warning. */
  return NIOS2_EXCEPTION_RETURN_REISSUE_INST;
   2020c:	0005883a 	mov	r2,zero
}
   20210:	e037883a 	mov	sp,fp
   20214:	dfc00117 	ldw	ra,4(sp)
   20218:	df000017 	ldw	fp,0(sp)
   2021c:	dec00204 	addi	sp,sp,8
   20220:	f800283a 	ret

Disassembly of section .text:

00020224 <_start>:

    /*
     * Now that the caches are initialized, set up the stack pointer and global pointer.
     * The values provided by the linker are assumed to be correctly aligned.
     */
    movhi sp, %hi(__alt_stack_pointer)
   20224:	06c00134 	movhi	sp,4
    ori sp, sp, %lo(__alt_stack_pointer)
   20228:	dec00014 	ori	sp,sp,0
    movhi gp, %hi(_gp)
   2022c:	06800134 	movhi	gp,4
    ori gp, gp, %lo(_gp)
   20230:	d688b914 	ori	gp,gp,8932
 */
#ifndef ALT_SIM_OPTIMIZE
    /* Log that the BSS is about to be cleared. */
    ALT_LOG_PUTS(alt_log_msg_bss)

    movhi r2, %hi(__bss_start)
   20234:	008000f4 	movhi	r2,3
    ori r2, r2, %lo(__bss_start)
   20238:	10af4314 	ori	r2,r2,48396

    movhi r3, %hi(__bss_end)
   2023c:	00c000f4 	movhi	r3,3
    ori r3, r3, %lo(__bss_end)
   20240:	18ef9c14 	ori	r3,r3,48752

    beq r2, r3, 1f
   20244:	10c00326 	beq	r2,r3,20254 <_start+0x30>

0:
    stw zero, (r2)
   20248:	10000015 	stw	zero,0(r2)
    addi r2, r2, 4
   2024c:	10800104 	addi	r2,r2,4
    bltu r2, r3, 0b
   20250:	10fffd36 	bltu	r2,r3,20248 <_start+0x24>
     * section aren't defined until alt_load() has been called).
     */
    mov   et, zero
#endif

    call alt_load
   20254:	00367d00 	call	367d0 <alt_load>

    /* Log that alt_main is about to be called. */
    ALT_LOG_PUTS(alt_log_msg_alt_main)

    /* Call the C entry point. It should never return. */
    call alt_main
   20258:	00368d40 	call	368d4 <alt_main>

0002025c <alt_after_alt_main>:

    /* Wait in infinite loop in case alt_main does return. */
alt_after_alt_main:
    br alt_after_alt_main
   2025c:	003fff06 	br	2025c <alt_after_alt_main>

00020260 <sseg_conv_hex>:
/*****************************************************************************
 * Function: sseg_conv_hex
 * Purpose:convert a hex digit to a 7-segment pattern
 *****************************************************************************/

alt_u8 sseg_conv_hex(int hex){
   20260:	defffd04 	addi	sp,sp,-12
   20264:	df000215 	stw	fp,8(sp)
   20268:	df000204 	addi	fp,sp,8
   2026c:	e13ffe15 	stw	r4,-8(fp)
	// active-low hex digit 7-seg patterns(0-9, a-f); MSB ignored
	static const alt_u8 SSEG_HEX_TABLE [16] = {
			0x40, 0x79, 0x24, 0x30, 0x19, 0x92, 0x02, 0x78, 0x00, 0x10, //0-9
			0x88, 0x03, 0x46, 0x21, 0x06, 0x0E};
	alt_u8 ptn;
	if(hex < 16){
   20270:	e0bffe17 	ldw	r2,-8(fp)
   20274:	10800408 	cmpgei	r2,r2,16
   20278:	1000061e 	bne	r2,zero,20294 <sseg_conv_hex+0x34>
		ptn = SSEG_HEX_TABLE[hex];
   2027c:	e0fffe17 	ldw	r3,-8(fp)
   20280:	00800134 	movhi	r2,4
   20284:	1885883a 	add	r2,r3,r2
   20288:	10a01403 	ldbu	r2,-32688(r2)
   2028c:	e0bfffc5 	stb	r2,-1(fp)
   20290:	00000206 	br	2029c <sseg_conv_hex+0x3c>
	} else{
		ptn = 0xFF; //blank
   20294:	00bfffc4 	movi	r2,-1
   20298:	e0bfffc5 	stb	r2,-1(fp)
	}

	return ptn;
   2029c:	e0bfffc3 	ldbu	r2,-1(fp)
}
   202a0:	e037883a 	mov	sp,fp
   202a4:	df000017 	ldw	fp,0(sp)
   202a8:	dec00104 	addi	sp,sp,4
   202ac:	f800283a 	ret

000202b0 <sseg_disp_ptn>:
/*****************************************************************************
 * Function: sseg_disp_ptn
 * Purpose: display pattern in four 7-seg displays
 *****************************************************************************/

void sseg_disp_ptn(alt_u32 base, alt_u8 *ptn){
   202b0:	defffb04 	addi	sp,sp,-20
   202b4:	df000415 	stw	fp,16(sp)
   202b8:	df000404 	addi	fp,sp,16
   202bc:	e13ffd15 	stw	r4,-12(fp)
   202c0:	e17ffc15 	stw	r5,-16(fp)
	alt_u32 sseg_data;
	int i;
	// form a 32 bit data

	for (i=0; i<4; i++){
   202c4:	e03ffe15 	stw	zero,-8(fp)
   202c8:	00000d06 	br	20300 <sseg_disp_ptn+0x50>
		sseg_data = (sseg_data << 8 ) | *ptn;
   202cc:	e0bfff17 	ldw	r2,-4(fp)
   202d0:	1006923a 	slli	r3,r2,8
   202d4:	e0bffc17 	ldw	r2,-16(fp)
   202d8:	10800003 	ldbu	r2,0(r2)
   202dc:	10803fcc 	andi	r2,r2,255
   202e0:	1884b03a 	or	r2,r3,r2
   202e4:	e0bfff15 	stw	r2,-4(fp)
		ptn++;
   202e8:	e0bffc17 	ldw	r2,-16(fp)
   202ec:	10800044 	addi	r2,r2,1
   202f0:	e0bffc15 	stw	r2,-16(fp)
	for (i=0; i<4; i++){
   202f4:	e0bffe17 	ldw	r2,-8(fp)
   202f8:	10800044 	addi	r2,r2,1
   202fc:	e0bffe15 	stw	r2,-8(fp)
   20300:	e0bffe17 	ldw	r2,-8(fp)
   20304:	10800110 	cmplti	r2,r2,4
   20308:	103ff01e 	bne	r2,zero,202cc <sseg_disp_ptn+0x1c>
	}
	pio_write(base, sseg_data);
   2030c:	e0bffd17 	ldw	r2,-12(fp)
   20310:	e0ffff17 	ldw	r3,-4(fp)
   20314:	10c00035 	stwio	r3,0(r2)
}
   20318:	0001883a 	nop
   2031c:	e037883a 	mov	sp,fp
   20320:	df000017 	ldw	fp,0(sp)
   20324:	dec00104 	addi	sp,sp,4
   20328:	f800283a 	ret

0002032c <flashsys_init_v2>:
* 	btn.base: base address of pushbutton PIO
* return:
* note :
********************************************************************/
void flashsys_init_v2(alt_u32 btn_base)
{
   2032c:	defffe04 	addi	sp,sp,-8
   20330:	df000115 	stw	fp,4(sp)
   20334:	df000104 	addi	fp,sp,4
   20338:	e13fff15 	stw	r4,-4(fp)
	btn_clear(btn_base); // clear button edge-capture reg
   2033c:	e0bfff17 	ldw	r2,-4(fp)
   20340:	10800304 	addi	r2,r2,12
   20344:	1007883a 	mov	r3,r2
   20348:	008003c4 	movi	r2,15
   2034c:	18800035 	stwio	r2,0(r3)
}
   20350:	0001883a 	nop
   20354:	e037883a 	mov	sp,fp
   20358:	df000017 	ldw	fp,0(sp)
   2035c:	dec00104 	addi	sp,sp,4
   20360:	f800283a 	ret

00020364 <jtag_uart_disp_msg_v2>:
* argument:s
* cmd: command
* return:
* note:
********************************************************************/
void jtag_uart_disp_msg_v2(cmd_type cmd){
   20364:	defffc04 	addi	sp,sp,-16
   20368:	dfc00315 	stw	ra,12(sp)
   2036c:	df000215 	stw	fp,8(sp)
   20370:	df000204 	addi	fp,sp,8
   20374:	e13ffe15 	stw	r4,-8(fp)
   20378:	e17fff15 	stw	r5,-4(fp)
	static int old=0;
	if (cmd.prd!=old){
   2037c:	e0ffff17 	ldw	r3,-4(fp)
   20380:	d0a68a17 	ldw	r2,-26072(gp)
   20384:	18800726 	beq	r3,r2,203a4 <jtag_uart_disp_msg_v2+0x40>
		printf("Interval: %03u ms \n", cmd.prd);
   20388:	e0bfff17 	ldw	r2,-4(fp)
   2038c:	100b883a 	mov	r5,r2
   20390:	01000134 	movhi	r4,4
   20394:	21201804 	addi	r4,r4,-32672
   20398:	00210a40 	call	210a4 <printf>
		old = cmd.prd;
   2039c:	e0bfff17 	ldw	r2,-4(fp)
   203a0:	d0a68a15 	stw	r2,-26072(gp)
	}
}
   203a4:	0001883a 	nop
   203a8:	e037883a 	mov	sp,fp
   203ac:	dfc00117 	ldw	ra,4(sp)
   203b0:	df000017 	ldw	fp,0(sp)
   203b4:	dec00204 	addi	sp,sp,8
   203b8:	f800283a 	ret

000203bc <led_flash_v2>:
* 	cmd: command
* return:
* note :
* 	The delay is done by continuously checking 1-ms tick
********************************************************************/
void led_flash_v2(alt_u32 led_base, cmd_type cmd){
   203bc:	defffb04 	addi	sp,sp,-20
   203c0:	dfc00415 	stw	ra,16(sp)
   203c4:	df000315 	stw	fp,12(sp)
   203c8:	df000304 	addi	fp,sp,12
   203cc:	e13fff15 	stw	r4,-4(fp)
   203d0:	e17ffd15 	stw	r5,-12(fp)
   203d4:	e1bffe15 	stw	r6,-8(fp)
	static alt_u8 led_pattern = 0x01;
	if (cmd.pause){ // no toggle if pause asserted
   203d8:	e0bffd17 	ldw	r2,-12(fp)
   203dc:	10000e1e 	bne	r2,zero,20418 <led_flash_v2+0x5c>
		return;}
	led_pattern ^= 0x03; // toggle 2 LSBs of LEDs
   203e0:	d0a00003 	ldbu	r2,-32768(gp)
   203e4:	108000dc 	xori	r2,r2,3
   203e8:	d0a00005 	stb	r2,-32768(gp)
	pio_write(led_base , led_pattern) ; // write LEDs
   203ec:	e0bfff17 	ldw	r2,-4(fp)
   203f0:	d0e00003 	ldbu	r3,-32768(gp)
   203f4:	18c03fcc 	andi	r3,r3,255
   203f8:	10c00035 	stwio	r3,0(r2)
	usleep(1000*cmd.prd); // delay for cmd.prd ms
   203fc:	e0bffe17 	ldw	r2,-8(fp)
   20400:	0140fa04 	movi	r5,1000
   20404:	1009883a 	mov	r4,r2
   20408:	002104c0 	call	2104c <__mulsi3>
   2040c:	1009883a 	mov	r4,r2
   20410:	0036cac0 	call	36cac <usleep>
   20414:	00000106 	br	2041c <led_flash_v2+0x60>
		return;}
   20418:	0001883a 	nop
}
   2041c:	e037883a 	mov	sp,fp
   20420:	dfc00117 	ldw	ra,4(sp)
   20424:	df000017 	ldw	fp,0(sp)
   20428:	dec00204 	addi	sp,sp,8
   2042c:	f800283a 	ret

00020430 <led_flash_v3>:
* 	cmd: command
* return:
* note :
* 	The delay is done by continuously checking 1-ms tick
********************************************************************/
void led_flash_v3(alt_u32 led_base, cmd_type cmd){
   20430:	defffa04 	addi	sp,sp,-24
   20434:	dfc00515 	stw	ra,20(sp)
   20438:	df000415 	stw	fp,16(sp)
   2043c:	df000404 	addi	fp,sp,16
   20440:	e13ffe15 	stw	r4,-8(fp)
   20444:	e17ffc15 	stw	r5,-16(fp)
   20448:	e1bffd15 	stw	r6,-12(fp)
	static alt_u8 led_pattern = 0x01;
	static int last=0;
	int now;
	if (cmd.pause){ // no toggle if pause asserted
   2044c:	e0bffc17 	ldw	r2,-16(fp)
   20450:	1000271e 	bne	r2,zero,204f0 <led_flash_v3+0xc0>
 * alt_nticks() returns the elapsed number of system clock ticks since reset.
 */

static ALT_INLINE alt_u64 ALT_ALWAYS_INLINE alt_nticks (void)
{
  return _alt_nticks;
   20454:	d0a69517 	ldw	r2,-26028(gp)
   20458:	d0e69617 	ldw	r3,-26024(gp)
  return _alt_tick_rate;
   2045c:	d1269417 	ldw	r4,-26032(gp)
		return;}

	now = (int)(alt_nticks()*alt_ticks_per_second()/1000);
   20460:	2011883a 	mov	r8,r4
   20464:	0013883a 	mov	r9,zero
   20468:	400d883a 	mov	r6,r8
   2046c:	480f883a 	mov	r7,r9
   20470:	1009883a 	mov	r4,r2
   20474:	180b883a 	mov	r5,r3
   20478:	00207c40 	call	207c4 <__muldi3>
   2047c:	1009883a 	mov	r4,r2
   20480:	180b883a 	mov	r5,r3
   20484:	2005883a 	mov	r2,r4
   20488:	2807883a 	mov	r3,r5
   2048c:	0180fa04 	movi	r6,1000
   20490:	000f883a 	mov	r7,zero
   20494:	1009883a 	mov	r4,r2
   20498:	180b883a 	mov	r5,r3
   2049c:	00208c80 	call	208c8 <__udivdi3>
   204a0:	1009883a 	mov	r4,r2
   204a4:	180b883a 	mov	r5,r3
   204a8:	2005883a 	mov	r2,r4
   204ac:	2807883a 	mov	r3,r5
   204b0:	e0bfff15 	stw	r2,-4(fp)
	if ((now -last)<cmd.prd) //interval not reached
   204b4:	d0a68b17 	ldw	r2,-26068(gp)
   204b8:	e0ffff17 	ldw	r3,-4(fp)
   204bc:	1887c83a 	sub	r3,r3,r2
   204c0:	e0bffd17 	ldw	r2,-12(fp)
   204c4:	18800c16 	blt	r3,r2,204f8 <led_flash_v3+0xc8>
		return;
	last=now;
   204c8:	e0bfff17 	ldw	r2,-4(fp)
   204cc:	d0a68b15 	stw	r2,-26068(gp)
	led_pattern ^= 0x03; // toggle 2 LSBs of LEDs
   204d0:	d0a00043 	ldbu	r2,-32767(gp)
   204d4:	108000dc 	xori	r2,r2,3
   204d8:	d0a00045 	stb	r2,-32767(gp)
	pio_write(led_base , led_pattern) ; // write LEDs
   204dc:	e0bffe17 	ldw	r2,-8(fp)
   204e0:	d0e00043 	ldbu	r3,-32767(gp)
   204e4:	18c03fcc 	andi	r3,r3,255
   204e8:	10c00035 	stwio	r3,0(r2)
   204ec:	00000306 	br	204fc <led_flash_v3+0xcc>
		return;}
   204f0:	0001883a 	nop
   204f4:	00000106 	br	204fc <led_flash_v3+0xcc>
		return;
   204f8:	0001883a 	nop
}
   204fc:	e037883a 	mov	sp,fp
   20500:	dfc00117 	ldw	ra,4(sp)
   20504:	df000017 	ldw	fp,0(sp)
   20508:	dec00204 	addi	sp,sp,8
   2050c:	f800283a 	ret

00020510 <sseg_disp_msg_v1>:
* cmd: command
* return:
* note:
********************************************************************/

void sseg_disp_msg_v1(alt_u32 sseg_base, cmd_type cmd){
   20510:	defff804 	addi	sp,sp,-32
   20514:	dfc00715 	stw	ra,28(sp)
   20518:	df000615 	stw	fp,24(sp)
   2051c:	df000604 	addi	fp,sp,24
   20520:	e13ffc15 	stw	r4,-16(fp)
   20524:	e17ffa15 	stw	r5,-24(fp)
   20528:	e1bffb15 	stw	r6,-20(fp)
	int pd;
	alt_u8 hex, msg[4];
	if(cmd.prd > 999){ //999 is max # to be displayed
   2052c:	e0bffb17 	ldw	r2,-20(fp)
   20530:	1080fa10 	cmplti	r2,r2,1000
   20534:	1000031e 	bne	r2,zero,20544 <sseg_disp_msg_v1+0x34>
		pd = 999;
   20538:	0080f9c4 	movi	r2,999
   2053c:	e0bfff15 	stw	r2,-4(fp)
   20540:	00000206 	br	2054c <sseg_disp_msg_v1+0x3c>
	}else{
		pd = cmd.prd;
   20544:	e0bffb17 	ldw	r2,-20(fp)
   20548:	e0bfff15 	stw	r2,-4(fp)
	}
	hex = pd%10; // units digit
   2054c:	e0bfff17 	ldw	r2,-4(fp)
   20550:	01400284 	movi	r5,10
   20554:	1009883a 	mov	r4,r2
   20558:	0020f180 	call	20f18 <__modsi3>
   2055c:	e0bffec5 	stb	r2,-5(fp)
	msg[3] = sseg_conv_hex(hex);
   20560:	e0bffec3 	ldbu	r2,-5(fp)
   20564:	1009883a 	mov	r4,r2
   20568:	00202600 	call	20260 <sseg_conv_hex>
   2056c:	e0bffe85 	stb	r2,-6(fp)
	hex = (pd/10)%10; //tens digit
   20570:	e0bfff17 	ldw	r2,-4(fp)
   20574:	01400284 	movi	r5,10
   20578:	1009883a 	mov	r4,r2
   2057c:	0020e980 	call	20e98 <__divsi3>
   20580:	01400284 	movi	r5,10
   20584:	1009883a 	mov	r4,r2
   20588:	0020f180 	call	20f18 <__modsi3>
   2058c:	e0bffec5 	stb	r2,-5(fp)
	msg[2] = sseg_conv_hex(hex);
   20590:	e0bffec3 	ldbu	r2,-5(fp)
   20594:	1009883a 	mov	r4,r2
   20598:	00202600 	call	20260 <sseg_conv_hex>
   2059c:	e0bffe45 	stb	r2,-7(fp)
	hex = pd/100;//100 digit
   205a0:	e0bfff17 	ldw	r2,-4(fp)
   205a4:	01401904 	movi	r5,100
   205a8:	1009883a 	mov	r4,r2
   205ac:	0020e980 	call	20e98 <__divsi3>
   205b0:	e0bffec5 	stb	r2,-5(fp)
	msg[1] = sseg_conv_hex(hex);
   205b4:	e0bffec3 	ldbu	r2,-5(fp)
   205b8:	1009883a 	mov	r4,r2
   205bc:	00202600 	call	20260 <sseg_conv_hex>
   205c0:	e0bffe05 	stb	r2,-8(fp)
	// specify pattern for the most significant digit
	if(cmd.pause){
   205c4:	e0bffa17 	ldw	r2,-24(fp)
   205c8:	10000326 	beq	r2,zero,205d8 <sseg_disp_msg_v1+0xc8>
		msg[0] = 0x0C; // pattern for letter P
   205cc:	00800304 	movi	r2,12
   205d0:	e0bffdc5 	stb	r2,-9(fp)
   205d4:	00000206 	br	205e0 <sseg_disp_msg_v1+0xd0>
	}else{
		msg[0] = 0xFF; // blank
   205d8:	00bfffc4 	movi	r2,-1
   205dc:	e0bffdc5 	stb	r2,-9(fp)
	}
	sseg_disp_ptn(sseg_base, msg);
   205e0:	e0bffdc4 	addi	r2,fp,-9
   205e4:	100b883a 	mov	r5,r2
   205e8:	e13ffc17 	ldw	r4,-16(fp)
   205ec:	00202b00 	call	202b0 <sseg_disp_ptn>
}
   205f0:	0001883a 	nop
   205f4:	e037883a 	mov	sp,fp
   205f8:	dfc00117 	ldw	ra,4(sp)
   205fc:	df000017 	ldw	fp,0(sp)
   20600:	dec00204 	addi	sp,sp,8
   20604:	f800283a 	ret

00020608 <sw_get_command_v1>:



void sw_get_command_v1(alt_u32 btn_base, alt_32 sw_base, cmd_type *cmd, alt_u32 jtag_base){
   20608:	defff804 	addi	sp,sp,-32
   2060c:	dfc00715 	stw	ra,28(sp)
   20610:	df000615 	stw	fp,24(sp)
   20614:	df000604 	addi	fp,sp,24
   20618:	e13ffd15 	stw	r4,-12(fp)
   2061c:	e17ffc15 	stw	r5,-16(fp)
   20620:	e1bffb15 	stw	r6,-20(fp)
   20624:	e1fffa15 	stw	r7,-24(fp)
	alt_u8 btn;
	btn = (alt_u8) btn_read(btn_base) & 0xF; //read 4 pushbuttons
   20628:	e0bffd17 	ldw	r2,-12(fp)
   2062c:	10800304 	addi	r2,r2,12
   20630:	10800037 	ldwio	r2,0(r2)
   20634:	108003cc 	andi	r2,r2,15
   20638:	e0bfffc5 	stb	r2,-1(fp)
	if(btn != 0){ // button pressed
   2063c:	e0bfffc3 	ldbu	r2,-1(fp)
   20640:	10003926 	beq	r2,zero,20728 <sw_get_command_v1+0x120>
		if(btn & 0x01){ // btn 0 pressed
   20644:	e0bfffc3 	ldbu	r2,-1(fp)
   20648:	1080004c 	andi	r2,r2,1
   2064c:	10000a26 	beq	r2,zero,20678 <sw_get_command_v1+0x70>
			cmd->pause = cmd->pause ^ 1; // toogle pause bit
   20650:	e0bffb17 	ldw	r2,-20(fp)
   20654:	10800017 	ldw	r2,0(r2)
   20658:	10c0005c 	xori	r3,r2,1
   2065c:	e0bffb17 	ldw	r2,-20(fp)
   20660:	10c00015 	stw	r3,0(r2)
			//printf("%s", "0 preessed\n");
			btn_clear(btn_base); //clear edge-capture reg
   20664:	e0bffd17 	ldw	r2,-12(fp)
   20668:	10800304 	addi	r2,r2,12
   2066c:	1007883a 	mov	r3,r2
   20670:	008003c4 	movi	r2,15
   20674:	18800035 	stwio	r2,0(r3)

		}
		if (btn & 0x02){ //btn 1 pressed
   20678:	e0bfffc3 	ldbu	r2,-1(fp)
   2067c:	1080008c 	andi	r2,r2,2
   20680:	10000a26 	beq	r2,zero,206ac <sw_get_command_v1+0xa4>
			cmd->prd = pio_read(sw_base) & 0x03FF; // load new interval
   20684:	e0bffc17 	ldw	r2,-16(fp)
   20688:	10800037 	ldwio	r2,0(r2)
   2068c:	10c0ffcc 	andi	r3,r2,1023
   20690:	e0bffb17 	ldw	r2,-20(fp)
   20694:	10c00115 	stw	r3,4(r2)
			btn_clear(btn_base); //clear edge-capture reg
   20698:	e0bffd17 	ldw	r2,-12(fp)
   2069c:	10800304 	addi	r2,r2,12
   206a0:	1007883a 	mov	r3,r2
   206a4:	008003c4 	movi	r2,15
   206a8:	18800035 	stwio	r2,0(r3)
			//printf("%s", "1 preessed\n");
		}
		if (btn & 0x04){ //btn 1 pressed
   206ac:	e0bfffc3 	ldbu	r2,-1(fp)
   206b0:	1080010c 	andi	r2,r2,4
   206b4:	10001c26 	beq	r2,zero,20728 <sw_get_command_v1+0x120>
			int new_prd;
			printf("%s", "Type new interval");
   206b8:	01400134 	movhi	r5,4
   206bc:	29601d04 	addi	r5,r5,-32652
   206c0:	01000134 	movhi	r4,4
   206c4:	21202204 	addi	r4,r4,-32632
   206c8:	00210a40 	call	210a4 <printf>
			scanf("%d", &new_prd);
   206cc:	e0bffe04 	addi	r2,fp,-8
   206d0:	100b883a 	mov	r5,r2
   206d4:	01000134 	movhi	r4,4
   206d8:	21202304 	addi	r4,r4,-32628
   206dc:	00211b80 	call	211b8 <scanf>
			if(new_prd>999){
   206e0:	e0bffe17 	ldw	r2,-8(fp)
   206e4:	1080fa10 	cmplti	r2,r2,1000
   206e8:	1000071e 	bne	r2,zero,20708 <sw_get_command_v1+0x100>
				cmd->prd = 999;
   206ec:	e0bffb17 	ldw	r2,-20(fp)
   206f0:	00c0f9c4 	movi	r3,999
   206f4:	10c00115 	stw	r3,4(r2)
				printf("solo se pueden valores menores de 999, se toma 999 como intervalo\n");
   206f8:	01000134 	movhi	r4,4
   206fc:	21202404 	addi	r4,r4,-32624
   20700:	00211a80 	call	211a8 <puts>
   20704:	00000306 	br	20714 <sw_get_command_v1+0x10c>

			} else{
				cmd->prd = new_prd;
   20708:	e0fffe17 	ldw	r3,-8(fp)
   2070c:	e0bffb17 	ldw	r2,-20(fp)
   20710:	10c00115 	stw	r3,4(r2)
			}
			btn_clear(btn_base); //clear edge-capture reg
   20714:	e0bffd17 	ldw	r2,-12(fp)
   20718:	10800304 	addi	r2,r2,12
   2071c:	1007883a 	mov	r3,r2
   20720:	008003c4 	movi	r2,15
   20724:	18800035 	stwio	r2,0(r3)

		}
	}
}
   20728:	0001883a 	nop
   2072c:	e037883a 	mov	sp,fp
   20730:	dfc00117 	ldw	ra,4(sp)
   20734:	df000017 	ldw	fp,0(sp)
   20738:	dec00204 	addi	sp,sp,8
   2073c:	f800283a 	ret

00020740 <main>:
/*******************************************************************
* function : main()
* purpose: advanced flashing -LED system using HAL
* note :
********************************************************************/
int main(){
   20740:	defffc04 	addi	sp,sp,-16
   20744:	dfc00315 	stw	ra,12(sp)
   20748:	df000215 	stw	fp,8(sp)
   2074c:	df000204 	addi	fp,sp,8
	cmd_type sw_cmd={0,100}; // not pause; 100 ms interval
   20750:	e03ffe15 	stw	zero,-8(fp)
   20754:	00801904 	movi	r2,100
   20758:	e0bfff15 	stw	r2,-4(fp)
	flashsys_init_v2(BTN_BASE);
   2075c:	01000134 	movhi	r4,4
   20760:	21043004 	addi	r4,r4,4288
   20764:	002032c0 	call	2032c <flashsys_init_v2>
	while(1){
		sw_get_command_v1(BTN_BASE, SWITCH_BASE ,&sw_cmd, JTAG_UART_BASE);
   20768:	e0bffe04 	addi	r2,fp,-8
   2076c:	01c00134 	movhi	r7,4
   20770:	39c44604 	addi	r7,r7,4376
   20774:	100d883a 	mov	r6,r2
   20778:	01400134 	movhi	r5,4
   2077c:	29443404 	addi	r5,r5,4304
   20780:	01000134 	movhi	r4,4
   20784:	21043004 	addi	r4,r4,4288
   20788:	00206080 	call	20608 <sw_get_command_v1>
		jtag_uart_disp_msg_v2(sw_cmd);
   2078c:	e13ffe17 	ldw	r4,-8(fp)
   20790:	e17fff17 	ldw	r5,-4(fp)
   20794:	00203640 	call	20364 <jtag_uart_disp_msg_v2>
		sseg_disp_msg_v1(SSEG_BASE, sw_cmd);
   20798:	e17ffe17 	ldw	r5,-8(fp)
   2079c:	e1bfff17 	ldw	r6,-4(fp)
   207a0:	01000134 	movhi	r4,4
   207a4:	21043804 	addi	r4,r4,4320
   207a8:	00205100 	call	20510 <sseg_disp_msg_v1>
		led_flash_v3(LEDR_BASE,sw_cmd);
   207ac:	e17ffe17 	ldw	r5,-8(fp)
   207b0:	e1bfff17 	ldw	r6,-4(fp)
   207b4:	01000134 	movhi	r4,4
   207b8:	21043c04 	addi	r4,r4,4336
   207bc:	00204300 	call	20430 <led_flash_v3>
		sw_get_command_v1(BTN_BASE, SWITCH_BASE ,&sw_cmd, JTAG_UART_BASE);
   207c0:	003fe906 	br	20768 <main+0x28>

000207c4 <__muldi3>:
   207c4:	defff704 	addi	sp,sp,-36
   207c8:	dd400515 	stw	r21,20(sp)
   207cc:	dd000415 	stw	r20,16(sp)
   207d0:	202ad43a 	srli	r21,r4,16
   207d4:	253fffcc 	andi	r20,r4,65535
   207d8:	dc000015 	stw	r16,0(sp)
   207dc:	343fffcc 	andi	r16,r6,65535
   207e0:	dcc00315 	stw	r19,12(sp)
   207e4:	dc400115 	stw	r17,4(sp)
   207e8:	2027883a 	mov	r19,r4
   207ec:	2823883a 	mov	r17,r5
   207f0:	a009883a 	mov	r4,r20
   207f4:	800b883a 	mov	r5,r16
   207f8:	dfc00815 	stw	ra,32(sp)
   207fc:	ddc00715 	stw	r23,28(sp)
   20800:	dd800615 	stw	r22,24(sp)
   20804:	302ed43a 	srli	r23,r6,16
   20808:	382d883a 	mov	r22,r7
   2080c:	dc800215 	stw	r18,8(sp)
   20810:	3025883a 	mov	r18,r6
   20814:	002104c0 	call	2104c <__mulsi3>
   20818:	800b883a 	mov	r5,r16
   2081c:	a809883a 	mov	r4,r21
   20820:	1021883a 	mov	r16,r2
   20824:	002104c0 	call	2104c <__mulsi3>
   20828:	a809883a 	mov	r4,r21
   2082c:	b80b883a 	mov	r5,r23
   20830:	102b883a 	mov	r21,r2
   20834:	002104c0 	call	2104c <__mulsi3>
   20838:	a009883a 	mov	r4,r20
   2083c:	b80b883a 	mov	r5,r23
   20840:	1029883a 	mov	r20,r2
   20844:	002104c0 	call	2104c <__mulsi3>
   20848:	8010d43a 	srli	r8,r16,16
   2084c:	1545883a 	add	r2,r2,r21
   20850:	4091883a 	add	r8,r8,r2
   20854:	4540022e 	bgeu	r8,r21,20860 <__muldi3+0x9c>
   20858:	00800074 	movhi	r2,1
   2085c:	a0a9883a 	add	r20,r20,r2
   20860:	4006d43a 	srli	r3,r8,16
   20864:	4010943a 	slli	r8,r8,16
   20868:	b00b883a 	mov	r5,r22
   2086c:	9809883a 	mov	r4,r19
   20870:	843fffcc 	andi	r16,r16,65535
   20874:	1d29883a 	add	r20,r3,r20
   20878:	4421883a 	add	r16,r8,r16
   2087c:	002104c0 	call	2104c <__mulsi3>
   20880:	880b883a 	mov	r5,r17
   20884:	9009883a 	mov	r4,r18
   20888:	1023883a 	mov	r17,r2
   2088c:	002104c0 	call	2104c <__mulsi3>
   20890:	88a3883a 	add	r17,r17,r2
   20894:	8d07883a 	add	r3,r17,r20
   20898:	8005883a 	mov	r2,r16
   2089c:	dfc00817 	ldw	ra,32(sp)
   208a0:	ddc00717 	ldw	r23,28(sp)
   208a4:	dd800617 	ldw	r22,24(sp)
   208a8:	dd400517 	ldw	r21,20(sp)
   208ac:	dd000417 	ldw	r20,16(sp)
   208b0:	dcc00317 	ldw	r19,12(sp)
   208b4:	dc800217 	ldw	r18,8(sp)
   208b8:	dc400117 	ldw	r17,4(sp)
   208bc:	dc000017 	ldw	r16,0(sp)
   208c0:	dec00904 	addi	sp,sp,36
   208c4:	f800283a 	ret

000208c8 <__udivdi3>:
   208c8:	defff504 	addi	sp,sp,-44
   208cc:	dcc00415 	stw	r19,16(sp)
   208d0:	dc400215 	stw	r17,8(sp)
   208d4:	dfc00a15 	stw	ra,40(sp)
   208d8:	df000915 	stw	fp,36(sp)
   208dc:	ddc00815 	stw	r23,32(sp)
   208e0:	dd800715 	stw	r22,28(sp)
   208e4:	dd400615 	stw	r21,24(sp)
   208e8:	dd000515 	stw	r20,20(sp)
   208ec:	dc800315 	stw	r18,12(sp)
   208f0:	dc000115 	stw	r16,4(sp)
   208f4:	2027883a 	mov	r19,r4
   208f8:	2823883a 	mov	r17,r5
   208fc:	3800451e 	bne	r7,zero,20a14 <__udivdi3+0x14c>
   20900:	3021883a 	mov	r16,r6
   20904:	2025883a 	mov	r18,r4
   20908:	2980622e 	bgeu	r5,r6,20a94 <__udivdi3+0x1cc>
   2090c:	00bfffd4 	movui	r2,65535
   20910:	2829883a 	mov	r20,r5
   20914:	1180a82e 	bgeu	r2,r6,20bb8 <__udivdi3+0x2f0>
   20918:	00804034 	movhi	r2,256
   2091c:	30814736 	bltu	r6,r2,20e3c <__udivdi3+0x574>
   20920:	00c00604 	movi	r3,24
   20924:	30cad83a 	srl	r5,r6,r3
   20928:	00800134 	movhi	r2,4
   2092c:	01000804 	movi	r4,32
   20930:	2885883a 	add	r2,r5,r2
   20934:	10a03503 	ldbu	r2,-32556(r2)
   20938:	10c5883a 	add	r2,r2,r3
   2093c:	2087c83a 	sub	r3,r4,r2
   20940:	20800526 	beq	r4,r2,20958 <__udivdi3+0x90>
   20944:	88e8983a 	sll	r20,r17,r3
   20948:	9884d83a 	srl	r2,r19,r2
   2094c:	30e0983a 	sll	r16,r6,r3
   20950:	98e4983a 	sll	r18,r19,r3
   20954:	1528b03a 	or	r20,r2,r20
   20958:	802ad43a 	srli	r21,r16,16
   2095c:	a009883a 	mov	r4,r20
   20960:	84ffffcc 	andi	r19,r16,65535
   20964:	a80b883a 	mov	r5,r21
   20968:	0020ff00 	call	20ff0 <__umodsi3>
   2096c:	a009883a 	mov	r4,r20
   20970:	a80b883a 	mov	r5,r21
   20974:	1023883a 	mov	r17,r2
   20978:	0020f8c0 	call	20f8c <__udivsi3>
   2097c:	9809883a 	mov	r4,r19
   20980:	100b883a 	mov	r5,r2
   20984:	1029883a 	mov	r20,r2
   20988:	002104c0 	call	2104c <__mulsi3>
   2098c:	8808943a 	slli	r4,r17,16
   20990:	9006d43a 	srli	r3,r18,16
   20994:	20c8b03a 	or	r4,r4,r3
   20998:	2080052e 	bgeu	r4,r2,209b0 <__udivdi3+0xe8>
   2099c:	2409883a 	add	r4,r4,r16
   209a0:	a0ffffc4 	addi	r3,r20,-1
   209a4:	24000136 	bltu	r4,r16,209ac <__udivdi3+0xe4>
   209a8:	20813536 	bltu	r4,r2,20e80 <__udivdi3+0x5b8>
   209ac:	1829883a 	mov	r20,r3
   209b0:	20a3c83a 	sub	r17,r4,r2
   209b4:	a80b883a 	mov	r5,r21
   209b8:	8809883a 	mov	r4,r17
   209bc:	0020ff00 	call	20ff0 <__umodsi3>
   209c0:	a80b883a 	mov	r5,r21
   209c4:	8809883a 	mov	r4,r17
   209c8:	1023883a 	mov	r17,r2
   209cc:	0020f8c0 	call	20f8c <__udivsi3>
   209d0:	100b883a 	mov	r5,r2
   209d4:	9809883a 	mov	r4,r19
   209d8:	102b883a 	mov	r21,r2
   209dc:	002104c0 	call	2104c <__mulsi3>
   209e0:	8806943a 	slli	r3,r17,16
   209e4:	94bfffcc 	andi	r18,r18,65535
   209e8:	1c86b03a 	or	r3,r3,r18
   209ec:	1880052e 	bgeu	r3,r2,20a04 <__udivdi3+0x13c>
   209f0:	80c7883a 	add	r3,r16,r3
   209f4:	a93fffc4 	addi	r4,r21,-1
   209f8:	1c000136 	bltu	r3,r16,20a00 <__udivdi3+0x138>
   209fc:	18811e36 	bltu	r3,r2,20e78 <__udivdi3+0x5b0>
   20a00:	202b883a 	mov	r21,r4
   20a04:	a00c943a 	slli	r6,r20,16
   20a08:	0007883a 	mov	r3,zero
   20a0c:	3544b03a 	or	r2,r6,r21
   20a10:	00000306 	br	20a20 <__udivdi3+0x158>
   20a14:	29c00e2e 	bgeu	r5,r7,20a50 <__udivdi3+0x188>
   20a18:	0007883a 	mov	r3,zero
   20a1c:	0005883a 	mov	r2,zero
   20a20:	dfc00a17 	ldw	ra,40(sp)
   20a24:	df000917 	ldw	fp,36(sp)
   20a28:	ddc00817 	ldw	r23,32(sp)
   20a2c:	dd800717 	ldw	r22,28(sp)
   20a30:	dd400617 	ldw	r21,24(sp)
   20a34:	dd000517 	ldw	r20,20(sp)
   20a38:	dcc00417 	ldw	r19,16(sp)
   20a3c:	dc800317 	ldw	r18,12(sp)
   20a40:	dc400217 	ldw	r17,8(sp)
   20a44:	dc000117 	ldw	r16,4(sp)
   20a48:	dec00b04 	addi	sp,sp,44
   20a4c:	f800283a 	ret
   20a50:	00bfffd4 	movui	r2,65535
   20a54:	11c05b2e 	bgeu	r2,r7,20bc4 <__udivdi3+0x2fc>
   20a58:	00804034 	movhi	r2,256
   20a5c:	3880f536 	bltu	r7,r2,20e34 <__udivdi3+0x56c>
   20a60:	00c00604 	movi	r3,24
   20a64:	38cad83a 	srl	r5,r7,r3
   20a68:	00800134 	movhi	r2,4
   20a6c:	01000804 	movi	r4,32
   20a70:	2885883a 	add	r2,r5,r2
   20a74:	10a03503 	ldbu	r2,-32556(r2)
   20a78:	10c5883a 	add	r2,r2,r3
   20a7c:	20a5c83a 	sub	r18,r4,r2
   20a80:	20808a1e 	bne	r4,r2,20cac <__udivdi3+0x3e4>
   20a84:	3c40ef36 	bltu	r7,r17,20e44 <__udivdi3+0x57c>
   20a88:	9985403a 	cmpgeu	r2,r19,r6
   20a8c:	0007883a 	mov	r3,zero
   20a90:	003fe306 	br	20a20 <__udivdi3+0x158>
   20a94:	3000041e 	bne	r6,zero,20aa8 <__udivdi3+0x1e0>
   20a98:	000b883a 	mov	r5,zero
   20a9c:	01000044 	movi	r4,1
   20aa0:	0020f8c0 	call	20f8c <__udivsi3>
   20aa4:	1021883a 	mov	r16,r2
   20aa8:	00bfffd4 	movui	r2,65535
   20aac:	14003f2e 	bgeu	r2,r16,20bac <__udivdi3+0x2e4>
   20ab0:	00804034 	movhi	r2,256
   20ab4:	8080dd36 	bltu	r16,r2,20e2c <__udivdi3+0x564>
   20ab8:	01000604 	movi	r4,24
   20abc:	8106d83a 	srl	r3,r16,r4
   20ac0:	00800134 	movhi	r2,4
   20ac4:	01400804 	movi	r5,32
   20ac8:	1885883a 	add	r2,r3,r2
   20acc:	10e03503 	ldbu	r3,-32556(r2)
   20ad0:	1907883a 	add	r3,r3,r4
   20ad4:	28cdc83a 	sub	r6,r5,r3
   20ad8:	28c03d1e 	bne	r5,r3,20bd0 <__udivdi3+0x308>
   20adc:	802ad43a 	srli	r21,r16,16
   20ae0:	8c23c83a 	sub	r17,r17,r16
   20ae4:	84ffffcc 	andi	r19,r16,65535
   20ae8:	00c00044 	movi	r3,1
   20aec:	8809883a 	mov	r4,r17
   20af0:	a80b883a 	mov	r5,r21
   20af4:	d8c00015 	stw	r3,0(sp)
   20af8:	0020ff00 	call	20ff0 <__umodsi3>
   20afc:	8809883a 	mov	r4,r17
   20b00:	a80b883a 	mov	r5,r21
   20b04:	1023883a 	mov	r17,r2
   20b08:	0020f8c0 	call	20f8c <__udivsi3>
   20b0c:	980b883a 	mov	r5,r19
   20b10:	1009883a 	mov	r4,r2
   20b14:	1029883a 	mov	r20,r2
   20b18:	002104c0 	call	2104c <__mulsi3>
   20b1c:	8808943a 	slli	r4,r17,16
   20b20:	900ad43a 	srli	r5,r18,16
   20b24:	d8c00017 	ldw	r3,0(sp)
   20b28:	2148b03a 	or	r4,r4,r5
   20b2c:	2080052e 	bgeu	r4,r2,20b44 <__udivdi3+0x27c>
   20b30:	2409883a 	add	r4,r4,r16
   20b34:	a17fffc4 	addi	r5,r20,-1
   20b38:	24000136 	bltu	r4,r16,20b40 <__udivdi3+0x278>
   20b3c:	2080d336 	bltu	r4,r2,20e8c <__udivdi3+0x5c4>
   20b40:	2829883a 	mov	r20,r5
   20b44:	20a3c83a 	sub	r17,r4,r2
   20b48:	a80b883a 	mov	r5,r21
   20b4c:	8809883a 	mov	r4,r17
   20b50:	d8c00015 	stw	r3,0(sp)
   20b54:	0020ff00 	call	20ff0 <__umodsi3>
   20b58:	a80b883a 	mov	r5,r21
   20b5c:	8809883a 	mov	r4,r17
   20b60:	1023883a 	mov	r17,r2
   20b64:	0020f8c0 	call	20f8c <__udivsi3>
   20b68:	980b883a 	mov	r5,r19
   20b6c:	1009883a 	mov	r4,r2
   20b70:	102b883a 	mov	r21,r2
   20b74:	002104c0 	call	2104c <__mulsi3>
   20b78:	880e943a 	slli	r7,r17,16
   20b7c:	94bfffcc 	andi	r18,r18,65535
   20b80:	d8c00017 	ldw	r3,0(sp)
   20b84:	3c8eb03a 	or	r7,r7,r18
   20b88:	3880052e 	bgeu	r7,r2,20ba0 <__udivdi3+0x2d8>
   20b8c:	81cf883a 	add	r7,r16,r7
   20b90:	a93fffc4 	addi	r4,r21,-1
   20b94:	3c000136 	bltu	r7,r16,20b9c <__udivdi3+0x2d4>
   20b98:	3880b536 	bltu	r7,r2,20e70 <__udivdi3+0x5a8>
   20b9c:	202b883a 	mov	r21,r4
   20ba0:	a00c943a 	slli	r6,r20,16
   20ba4:	3544b03a 	or	r2,r6,r21
   20ba8:	003f9d06 	br	20a20 <__udivdi3+0x158>
   20bac:	81004028 	cmpgeui	r4,r16,256
   20bb0:	200890fa 	slli	r4,r4,3
   20bb4:	003fc106 	br	20abc <__udivdi3+0x1f4>
   20bb8:	30c04028 	cmpgeui	r3,r6,256
   20bbc:	180690fa 	slli	r3,r3,3
   20bc0:	003f5806 	br	20924 <__udivdi3+0x5c>
   20bc4:	38c04028 	cmpgeui	r3,r7,256
   20bc8:	180690fa 	slli	r3,r3,3
   20bcc:	003fa506 	br	20a64 <__udivdi3+0x19c>
   20bd0:	81a0983a 	sll	r16,r16,r6
   20bd4:	88ecd83a 	srl	r22,r17,r3
   20bd8:	98c6d83a 	srl	r3,r19,r3
   20bdc:	802ad43a 	srli	r21,r16,16
   20be0:	89a2983a 	sll	r17,r17,r6
   20be4:	b009883a 	mov	r4,r22
   20be8:	a80b883a 	mov	r5,r21
   20bec:	1c68b03a 	or	r20,r3,r17
   20bf0:	99a4983a 	sll	r18,r19,r6
   20bf4:	0020ff00 	call	20ff0 <__umodsi3>
   20bf8:	b009883a 	mov	r4,r22
   20bfc:	a80b883a 	mov	r5,r21
   20c00:	1023883a 	mov	r17,r2
   20c04:	84ffffcc 	andi	r19,r16,65535
   20c08:	0020f8c0 	call	20f8c <__udivsi3>
   20c0c:	9809883a 	mov	r4,r19
   20c10:	100b883a 	mov	r5,r2
   20c14:	102d883a 	mov	r22,r2
   20c18:	002104c0 	call	2104c <__mulsi3>
   20c1c:	8808943a 	slli	r4,r17,16
   20c20:	a006d43a 	srli	r3,r20,16
   20c24:	20c8b03a 	or	r4,r4,r3
   20c28:	2080062e 	bgeu	r4,r2,20c44 <__udivdi3+0x37c>
   20c2c:	2409883a 	add	r4,r4,r16
   20c30:	b0ffffc4 	addi	r3,r22,-1
   20c34:	24008c36 	bltu	r4,r16,20e68 <__udivdi3+0x5a0>
   20c38:	20808b2e 	bgeu	r4,r2,20e68 <__udivdi3+0x5a0>
   20c3c:	b5bfff84 	addi	r22,r22,-2
   20c40:	2409883a 	add	r4,r4,r16
   20c44:	20a3c83a 	sub	r17,r4,r2
   20c48:	8809883a 	mov	r4,r17
   20c4c:	a80b883a 	mov	r5,r21
   20c50:	0020ff00 	call	20ff0 <__umodsi3>
   20c54:	8809883a 	mov	r4,r17
   20c58:	1023883a 	mov	r17,r2
   20c5c:	a80b883a 	mov	r5,r21
   20c60:	8822943a 	slli	r17,r17,16
   20c64:	0020f8c0 	call	20f8c <__udivsi3>
   20c68:	100b883a 	mov	r5,r2
   20c6c:	9809883a 	mov	r4,r19
   20c70:	a53fffcc 	andi	r20,r20,65535
   20c74:	102f883a 	mov	r23,r2
   20c78:	8d22b03a 	or	r17,r17,r20
   20c7c:	002104c0 	call	2104c <__mulsi3>
   20c80:	8880062e 	bgeu	r17,r2,20c9c <__udivdi3+0x3d4>
   20c84:	8c23883a 	add	r17,r17,r16
   20c88:	b8ffffc4 	addi	r3,r23,-1
   20c8c:	8c007236 	bltu	r17,r16,20e58 <__udivdi3+0x590>
   20c90:	8880712e 	bgeu	r17,r2,20e58 <__udivdi3+0x590>
   20c94:	bdffff84 	addi	r23,r23,-2
   20c98:	8c23883a 	add	r17,r17,r16
   20c9c:	b006943a 	slli	r3,r22,16
   20ca0:	88a3c83a 	sub	r17,r17,r2
   20ca4:	1dc6b03a 	or	r3,r3,r23
   20ca8:	003f9006 	br	20aec <__udivdi3+0x224>
   20cac:	30a8d83a 	srl	r20,r6,r2
   20cb0:	3c8e983a 	sll	r7,r7,r18
   20cb4:	88a0d83a 	srl	r16,r17,r2
   20cb8:	9886d83a 	srl	r3,r19,r2
   20cbc:	a1e8b03a 	or	r20,r20,r7
   20cc0:	a02ed43a 	srli	r23,r20,16
   20cc4:	8c84983a 	sll	r2,r17,r18
   20cc8:	8009883a 	mov	r4,r16
   20ccc:	b80b883a 	mov	r5,r23
   20cd0:	18a2b03a 	or	r17,r3,r2
   20cd4:	34ac983a 	sll	r22,r6,r18
   20cd8:	0020ff00 	call	20ff0 <__umodsi3>
   20cdc:	8009883a 	mov	r4,r16
   20ce0:	b80b883a 	mov	r5,r23
   20ce4:	102b883a 	mov	r21,r2
   20ce8:	a73fffcc 	andi	fp,r20,65535
   20cec:	0020f8c0 	call	20f8c <__udivsi3>
   20cf0:	e009883a 	mov	r4,fp
   20cf4:	100b883a 	mov	r5,r2
   20cf8:	1021883a 	mov	r16,r2
   20cfc:	002104c0 	call	2104c <__mulsi3>
   20d00:	a808943a 	slli	r4,r21,16
   20d04:	8806d43a 	srli	r3,r17,16
   20d08:	20c8b03a 	or	r4,r4,r3
   20d0c:	2080062e 	bgeu	r4,r2,20d28 <__udivdi3+0x460>
   20d10:	2509883a 	add	r4,r4,r20
   20d14:	80ffffc4 	addi	r3,r16,-1
   20d18:	25005136 	bltu	r4,r20,20e60 <__udivdi3+0x598>
   20d1c:	2080502e 	bgeu	r4,r2,20e60 <__udivdi3+0x598>
   20d20:	843fff84 	addi	r16,r16,-2
   20d24:	2509883a 	add	r4,r4,r20
   20d28:	20abc83a 	sub	r21,r4,r2
   20d2c:	b80b883a 	mov	r5,r23
   20d30:	a809883a 	mov	r4,r21
   20d34:	0020ff00 	call	20ff0 <__umodsi3>
   20d38:	b80b883a 	mov	r5,r23
   20d3c:	a809883a 	mov	r4,r21
   20d40:	102b883a 	mov	r21,r2
   20d44:	0020f8c0 	call	20f8c <__udivsi3>
   20d48:	100b883a 	mov	r5,r2
   20d4c:	e009883a 	mov	r4,fp
   20d50:	102f883a 	mov	r23,r2
   20d54:	002104c0 	call	2104c <__mulsi3>
   20d58:	a806943a 	slli	r3,r21,16
   20d5c:	8c7fffcc 	andi	r17,r17,65535
   20d60:	1c46b03a 	or	r3,r3,r17
   20d64:	1880062e 	bgeu	r3,r2,20d80 <__udivdi3+0x4b8>
   20d68:	1d07883a 	add	r3,r3,r20
   20d6c:	b93fffc4 	addi	r4,r23,-1
   20d70:	1d003736 	bltu	r3,r20,20e50 <__udivdi3+0x588>
   20d74:	1880362e 	bgeu	r3,r2,20e50 <__udivdi3+0x588>
   20d78:	bdffff84 	addi	r23,r23,-2
   20d7c:	1d07883a 	add	r3,r3,r20
   20d80:	8020943a 	slli	r16,r16,16
   20d84:	bd7fffcc 	andi	r21,r23,65535
   20d88:	b73fffcc 	andi	fp,r22,65535
   20d8c:	85e0b03a 	or	r16,r16,r23
   20d90:	8028d43a 	srli	r20,r16,16
   20d94:	a809883a 	mov	r4,r21
   20d98:	e00b883a 	mov	r5,fp
   20d9c:	18a3c83a 	sub	r17,r3,r2
   20da0:	b02cd43a 	srli	r22,r22,16
   20da4:	002104c0 	call	2104c <__mulsi3>
   20da8:	a009883a 	mov	r4,r20
   20dac:	e00b883a 	mov	r5,fp
   20db0:	102f883a 	mov	r23,r2
   20db4:	002104c0 	call	2104c <__mulsi3>
   20db8:	a009883a 	mov	r4,r20
   20dbc:	b00b883a 	mov	r5,r22
   20dc0:	1029883a 	mov	r20,r2
   20dc4:	002104c0 	call	2104c <__mulsi3>
   20dc8:	a809883a 	mov	r4,r21
   20dcc:	b00b883a 	mov	r5,r22
   20dd0:	102b883a 	mov	r21,r2
   20dd4:	002104c0 	call	2104c <__mulsi3>
   20dd8:	b806d43a 	srli	r3,r23,16
   20ddc:	1505883a 	add	r2,r2,r20
   20de0:	1887883a 	add	r3,r3,r2
   20de4:	1d00022e 	bgeu	r3,r20,20df0 <__udivdi3+0x528>
   20de8:	00800074 	movhi	r2,1
   20dec:	a8ab883a 	add	r21,r21,r2
   20df0:	1804d43a 	srli	r2,r3,16
   20df4:	1545883a 	add	r2,r2,r21
   20df8:	88800936 	bltu	r17,r2,20e20 <__udivdi3+0x558>
   20dfc:	88800326 	beq	r17,r2,20e0c <__udivdi3+0x544>
   20e00:	8005883a 	mov	r2,r16
   20e04:	0007883a 	mov	r3,zero
   20e08:	003f0506 	br	20a20 <__udivdi3+0x158>
   20e0c:	1806943a 	slli	r3,r3,16
   20e10:	9c88983a 	sll	r4,r19,r18
   20e14:	bdffffcc 	andi	r23,r23,65535
   20e18:	1dc5883a 	add	r2,r3,r23
   20e1c:	20bff82e 	bgeu	r4,r2,20e00 <__udivdi3+0x538>
   20e20:	80bfffc4 	addi	r2,r16,-1
   20e24:	0007883a 	mov	r3,zero
   20e28:	003efd06 	br	20a20 <__udivdi3+0x158>
   20e2c:	01000404 	movi	r4,16
   20e30:	003f2206 	br	20abc <__udivdi3+0x1f4>
   20e34:	00c00404 	movi	r3,16
   20e38:	003f0a06 	br	20a64 <__udivdi3+0x19c>
   20e3c:	00c00404 	movi	r3,16
   20e40:	003eb806 	br	20924 <__udivdi3+0x5c>
   20e44:	0007883a 	mov	r3,zero
   20e48:	00800044 	movi	r2,1
   20e4c:	003ef406 	br	20a20 <__udivdi3+0x158>
   20e50:	202f883a 	mov	r23,r4
   20e54:	003fca06 	br	20d80 <__udivdi3+0x4b8>
   20e58:	182f883a 	mov	r23,r3
   20e5c:	003f8f06 	br	20c9c <__udivdi3+0x3d4>
   20e60:	1821883a 	mov	r16,r3
   20e64:	003fb006 	br	20d28 <__udivdi3+0x460>
   20e68:	182d883a 	mov	r22,r3
   20e6c:	003f7506 	br	20c44 <__udivdi3+0x37c>
   20e70:	ad7fff84 	addi	r21,r21,-2
   20e74:	003f4a06 	br	20ba0 <__udivdi3+0x2d8>
   20e78:	ad7fff84 	addi	r21,r21,-2
   20e7c:	003ee106 	br	20a04 <__udivdi3+0x13c>
   20e80:	a53fff84 	addi	r20,r20,-2
   20e84:	2409883a 	add	r4,r4,r16
   20e88:	003ec906 	br	209b0 <__udivdi3+0xe8>
   20e8c:	a53fff84 	addi	r20,r20,-2
   20e90:	2409883a 	add	r4,r4,r16
   20e94:	003f2b06 	br	20b44 <__udivdi3+0x27c>

00020e98 <__divsi3>:
   20e98:	20001a16 	blt	r4,zero,20f04 <__divsi3+0x6c>
   20e9c:	000f883a 	mov	r7,zero
   20ea0:	2800020e 	bge	r5,zero,20eac <__divsi3+0x14>
   20ea4:	014bc83a 	sub	r5,zero,r5
   20ea8:	39c0005c 	xori	r7,r7,1
   20eac:	200d883a 	mov	r6,r4
   20eb0:	00c00044 	movi	r3,1
   20eb4:	2900092e 	bgeu	r5,r4,20edc <__divsi3+0x44>
   20eb8:	00800804 	movi	r2,32
   20ebc:	00c00044 	movi	r3,1
   20ec0:	00000106 	br	20ec8 <__divsi3+0x30>
   20ec4:	10001226 	beq	r2,zero,20f10 <__divsi3+0x78>
   20ec8:	294b883a 	add	r5,r5,r5
   20ecc:	10bfffc4 	addi	r2,r2,-1
   20ed0:	18c7883a 	add	r3,r3,r3
   20ed4:	293ffb36 	bltu	r5,r4,20ec4 <__divsi3+0x2c>
   20ed8:	18000d26 	beq	r3,zero,20f10 <__divsi3+0x78>
   20edc:	0005883a 	mov	r2,zero
   20ee0:	31400236 	bltu	r6,r5,20eec <__divsi3+0x54>
   20ee4:	314dc83a 	sub	r6,r6,r5
   20ee8:	10c4b03a 	or	r2,r2,r3
   20eec:	1806d07a 	srli	r3,r3,1
   20ef0:	280ad07a 	srli	r5,r5,1
   20ef4:	183ffa1e 	bne	r3,zero,20ee0 <__divsi3+0x48>
   20ef8:	38000126 	beq	r7,zero,20f00 <__divsi3+0x68>
   20efc:	0085c83a 	sub	r2,zero,r2
   20f00:	f800283a 	ret
   20f04:	0109c83a 	sub	r4,zero,r4
   20f08:	01c00044 	movi	r7,1
   20f0c:	003fe406 	br	20ea0 <__divsi3+0x8>
   20f10:	0005883a 	mov	r2,zero
   20f14:	003ff806 	br	20ef8 <__divsi3+0x60>

00020f18 <__modsi3>:
   20f18:	20001916 	blt	r4,zero,20f80 <__modsi3+0x68>
   20f1c:	000f883a 	mov	r7,zero
   20f20:	2005883a 	mov	r2,r4
   20f24:	2800010e 	bge	r5,zero,20f2c <__modsi3+0x14>
   20f28:	014bc83a 	sub	r5,zero,r5
   20f2c:	00c00044 	movi	r3,1
   20f30:	2900092e 	bgeu	r5,r4,20f58 <__modsi3+0x40>
   20f34:	01800804 	movi	r6,32
   20f38:	00c00044 	movi	r3,1
   20f3c:	00000106 	br	20f44 <__modsi3+0x2c>
   20f40:	30000d26 	beq	r6,zero,20f78 <__modsi3+0x60>
   20f44:	294b883a 	add	r5,r5,r5
   20f48:	31bfffc4 	addi	r6,r6,-1
   20f4c:	18c7883a 	add	r3,r3,r3
   20f50:	293ffb36 	bltu	r5,r4,20f40 <__modsi3+0x28>
   20f54:	18000826 	beq	r3,zero,20f78 <__modsi3+0x60>
   20f58:	1806d07a 	srli	r3,r3,1
   20f5c:	11400136 	bltu	r2,r5,20f64 <__modsi3+0x4c>
   20f60:	1145c83a 	sub	r2,r2,r5
   20f64:	280ad07a 	srli	r5,r5,1
   20f68:	183ffb1e 	bne	r3,zero,20f58 <__modsi3+0x40>
   20f6c:	38000126 	beq	r7,zero,20f74 <__modsi3+0x5c>
   20f70:	0085c83a 	sub	r2,zero,r2
   20f74:	f800283a 	ret
   20f78:	2005883a 	mov	r2,r4
   20f7c:	003ffb06 	br	20f6c <__modsi3+0x54>
   20f80:	0109c83a 	sub	r4,zero,r4
   20f84:	01c00044 	movi	r7,1
   20f88:	003fe506 	br	20f20 <__modsi3+0x8>

00020f8c <__udivsi3>:
   20f8c:	200d883a 	mov	r6,r4
   20f90:	2900152e 	bgeu	r5,r4,20fe8 <__udivsi3+0x5c>
   20f94:	28001416 	blt	r5,zero,20fe8 <__udivsi3+0x5c>
   20f98:	00800804 	movi	r2,32
   20f9c:	00c00044 	movi	r3,1
   20fa0:	00000206 	br	20fac <__udivsi3+0x20>
   20fa4:	10000e26 	beq	r2,zero,20fe0 <__udivsi3+0x54>
   20fa8:	28000516 	blt	r5,zero,20fc0 <__udivsi3+0x34>
   20fac:	294b883a 	add	r5,r5,r5
   20fb0:	10bfffc4 	addi	r2,r2,-1
   20fb4:	18c7883a 	add	r3,r3,r3
   20fb8:	293ffa36 	bltu	r5,r4,20fa4 <__udivsi3+0x18>
   20fbc:	18000826 	beq	r3,zero,20fe0 <__udivsi3+0x54>
   20fc0:	0005883a 	mov	r2,zero
   20fc4:	31400236 	bltu	r6,r5,20fd0 <__udivsi3+0x44>
   20fc8:	314dc83a 	sub	r6,r6,r5
   20fcc:	10c4b03a 	or	r2,r2,r3
   20fd0:	1806d07a 	srli	r3,r3,1
   20fd4:	280ad07a 	srli	r5,r5,1
   20fd8:	183ffa1e 	bne	r3,zero,20fc4 <__udivsi3+0x38>
   20fdc:	f800283a 	ret
   20fe0:	0005883a 	mov	r2,zero
   20fe4:	f800283a 	ret
   20fe8:	00c00044 	movi	r3,1
   20fec:	003ff406 	br	20fc0 <__udivsi3+0x34>

00020ff0 <__umodsi3>:
   20ff0:	2005883a 	mov	r2,r4
   20ff4:	2900132e 	bgeu	r5,r4,21044 <__umodsi3+0x54>
   20ff8:	28001216 	blt	r5,zero,21044 <__umodsi3+0x54>
   20ffc:	01800804 	movi	r6,32
   21000:	00c00044 	movi	r3,1
   21004:	00000206 	br	21010 <__umodsi3+0x20>
   21008:	30000c26 	beq	r6,zero,2103c <__umodsi3+0x4c>
   2100c:	28000516 	blt	r5,zero,21024 <__umodsi3+0x34>
   21010:	294b883a 	add	r5,r5,r5
   21014:	31bfffc4 	addi	r6,r6,-1
   21018:	18c7883a 	add	r3,r3,r3
   2101c:	293ffa36 	bltu	r5,r4,21008 <__umodsi3+0x18>
   21020:	18000626 	beq	r3,zero,2103c <__umodsi3+0x4c>
   21024:	1806d07a 	srli	r3,r3,1
   21028:	11400136 	bltu	r2,r5,21030 <__umodsi3+0x40>
   2102c:	1145c83a 	sub	r2,r2,r5
   21030:	280ad07a 	srli	r5,r5,1
   21034:	183ffb1e 	bne	r3,zero,21024 <__umodsi3+0x34>
   21038:	f800283a 	ret
   2103c:	2005883a 	mov	r2,r4
   21040:	f800283a 	ret
   21044:	00c00044 	movi	r3,1
   21048:	003ff606 	br	21024 <__umodsi3+0x34>

0002104c <__mulsi3>:
   2104c:	0005883a 	mov	r2,zero
   21050:	20000726 	beq	r4,zero,21070 <__mulsi3+0x24>
   21054:	20c0004c 	andi	r3,r4,1
   21058:	2008d07a 	srli	r4,r4,1
   2105c:	18000126 	beq	r3,zero,21064 <__mulsi3+0x18>
   21060:	1145883a 	add	r2,r2,r5
   21064:	294b883a 	add	r5,r5,r5
   21068:	203ffa1e 	bne	r4,zero,21054 <__mulsi3+0x8>
   2106c:	f800283a 	ret
   21070:	f800283a 	ret

00021074 <_printf_r>:
   21074:	defffd04 	addi	sp,sp,-12
   21078:	2805883a 	mov	r2,r5
   2107c:	dfc00015 	stw	ra,0(sp)
   21080:	d9800115 	stw	r6,4(sp)
   21084:	d9c00215 	stw	r7,8(sp)
   21088:	21400217 	ldw	r5,8(r4)
   2108c:	d9c00104 	addi	r7,sp,4
   21090:	100d883a 	mov	r6,r2
   21094:	00212bc0 	call	212bc <___vfprintf_internal_r>
   21098:	dfc00017 	ldw	ra,0(sp)
   2109c:	dec00304 	addi	sp,sp,12
   210a0:	f800283a 	ret

000210a4 <printf>:
   210a4:	defffc04 	addi	sp,sp,-16
   210a8:	dfc00015 	stw	ra,0(sp)
   210ac:	d9400115 	stw	r5,4(sp)
   210b0:	d9800215 	stw	r6,8(sp)
   210b4:	d9c00315 	stw	r7,12(sp)
   210b8:	00800134 	movhi	r2,4
   210bc:	10a8bb17 	ldw	r2,-23828(r2)
   210c0:	200b883a 	mov	r5,r4
   210c4:	d9800104 	addi	r6,sp,4
   210c8:	11000217 	ldw	r4,8(r2)
   210cc:	00232dc0 	call	232dc <__vfprintf_internal>
   210d0:	dfc00017 	ldw	ra,0(sp)
   210d4:	dec00404 	addi	sp,sp,16
   210d8:	f800283a 	ret

000210dc <_puts_r>:
   210dc:	defff504 	addi	sp,sp,-44
   210e0:	dc000815 	stw	r16,32(sp)
   210e4:	2021883a 	mov	r16,r4
   210e8:	2809883a 	mov	r4,r5
   210ec:	dc400915 	stw	r17,36(sp)
   210f0:	dfc00a15 	stw	ra,40(sp)
   210f4:	2823883a 	mov	r17,r5
   210f8:	00212240 	call	21224 <strlen>
   210fc:	11000044 	addi	r4,r2,1
   21100:	d8800515 	stw	r2,20(sp)
   21104:	00800044 	movi	r2,1
   21108:	00c00134 	movhi	r3,4
   2110c:	d8800715 	stw	r2,28(sp)
   21110:	d8800404 	addi	r2,sp,16
   21114:	18e07504 	addi	r3,r3,-32300
   21118:	d8800115 	stw	r2,4(sp)
   2111c:	00800084 	movi	r2,2
   21120:	dc400415 	stw	r17,16(sp)
   21124:	d8c00615 	stw	r3,24(sp)
   21128:	d9000315 	stw	r4,12(sp)
   2112c:	d8800215 	stw	r2,8(sp)
   21130:	81400217 	ldw	r5,8(r16)
   21134:	80000226 	beq	r16,zero,21140 <_puts_r+0x64>
   21138:	80800e17 	ldw	r2,56(r16)
   2113c:	10001326 	beq	r2,zero,2118c <_puts_r+0xb0>
   21140:	2880030b 	ldhu	r2,12(r5)
   21144:	10c8000c 	andi	r3,r2,8192
   21148:	1800061e 	bne	r3,zero,21164 <_puts_r+0x88>
   2114c:	28c01917 	ldw	r3,100(r5)
   21150:	0137ffc4 	movi	r4,-8193
   21154:	10880014 	ori	r2,r2,8192
   21158:	1906703a 	and	r3,r3,r4
   2115c:	2880030d 	sth	r2,12(r5)
   21160:	28c01915 	stw	r3,100(r5)
   21164:	d9800104 	addi	r6,sp,4
   21168:	8009883a 	mov	r4,r16
   2116c:	002756c0 	call	2756c <__sfvwrite_r>
   21170:	10000b1e 	bne	r2,zero,211a0 <_puts_r+0xc4>
   21174:	00800284 	movi	r2,10
   21178:	dfc00a17 	ldw	ra,40(sp)
   2117c:	dc400917 	ldw	r17,36(sp)
   21180:	dc000817 	ldw	r16,32(sp)
   21184:	dec00b04 	addi	sp,sp,44
   21188:	f800283a 	ret
   2118c:	8009883a 	mov	r4,r16
   21190:	d9400015 	stw	r5,0(sp)
   21194:	0026e840 	call	26e84 <__sinit>
   21198:	d9400017 	ldw	r5,0(sp)
   2119c:	003fe806 	br	21140 <_puts_r+0x64>
   211a0:	00bfffc4 	movi	r2,-1
   211a4:	003ff406 	br	21178 <_puts_r+0x9c>

000211a8 <puts>:
   211a8:	00800134 	movhi	r2,4
   211ac:	200b883a 	mov	r5,r4
   211b0:	1128bb17 	ldw	r4,-23828(r2)
   211b4:	00210dc1 	jmpi	210dc <_puts_r>

000211b8 <scanf>:
   211b8:	defffc04 	addi	sp,sp,-16
   211bc:	2005883a 	mov	r2,r4
   211c0:	dfc00015 	stw	ra,0(sp)
   211c4:	d9400115 	stw	r5,4(sp)
   211c8:	d9800215 	stw	r6,8(sp)
   211cc:	d9c00315 	stw	r7,12(sp)
   211d0:	00c00134 	movhi	r3,4
   211d4:	1928bb17 	ldw	r4,-23828(r3)
   211d8:	d9c00104 	addi	r7,sp,4
   211dc:	100d883a 	mov	r6,r2
   211e0:	21400117 	ldw	r5,4(r4)
   211e4:	0024cfc0 	call	24cfc <_vfscanf_r>
   211e8:	dfc00017 	ldw	ra,0(sp)
   211ec:	dec00404 	addi	sp,sp,16
   211f0:	f800283a 	ret

000211f4 <_scanf_r>:
   211f4:	defffd04 	addi	sp,sp,-12
   211f8:	2805883a 	mov	r2,r5
   211fc:	dfc00015 	stw	ra,0(sp)
   21200:	d9800115 	stw	r6,4(sp)
   21204:	d9c00215 	stw	r7,8(sp)
   21208:	21400117 	ldw	r5,4(r4)
   2120c:	d9c00104 	addi	r7,sp,4
   21210:	100d883a 	mov	r6,r2
   21214:	0024cfc0 	call	24cfc <_vfscanf_r>
   21218:	dfc00017 	ldw	ra,0(sp)
   2121c:	dec00304 	addi	sp,sp,12
   21220:	f800283a 	ret

00021224 <strlen>:
   21224:	208000cc 	andi	r2,r4,3
   21228:	10000926 	beq	r2,zero,21250 <strlen+0x2c>
   2122c:	2005883a 	mov	r2,r4
   21230:	00000306 	br	21240 <strlen+0x1c>
   21234:	10800044 	addi	r2,r2,1
   21238:	10c000cc 	andi	r3,r2,3
   2123c:	18000526 	beq	r3,zero,21254 <strlen+0x30>
   21240:	10c00007 	ldb	r3,0(r2)
   21244:	183ffb1e 	bne	r3,zero,21234 <strlen+0x10>
   21248:	1105c83a 	sub	r2,r2,r4
   2124c:	f800283a 	ret
   21250:	2005883a 	mov	r2,r4
   21254:	11400017 	ldw	r5,0(r2)
   21258:	01ffbff4 	movhi	r7,65279
   2125c:	39ffbfc4 	addi	r7,r7,-257
   21260:	29c7883a 	add	r3,r5,r7
   21264:	01a02074 	movhi	r6,32897
   21268:	014a303a 	nor	r5,zero,r5
   2126c:	1946703a 	and	r3,r3,r5
   21270:	31a02004 	addi	r6,r6,-32640
   21274:	1986703a 	and	r3,r3,r6
   21278:	1800071e 	bne	r3,zero,21298 <strlen+0x74>
   2127c:	11400117 	ldw	r5,4(r2)
   21280:	10800104 	addi	r2,r2,4
   21284:	29c7883a 	add	r3,r5,r7
   21288:	014a303a 	nor	r5,zero,r5
   2128c:	1946703a 	and	r3,r3,r5
   21290:	1986703a 	and	r3,r3,r6
   21294:	183ff926 	beq	r3,zero,2127c <strlen+0x58>
   21298:	10c00007 	ldb	r3,0(r2)
   2129c:	183fea26 	beq	r3,zero,21248 <strlen+0x24>
   212a0:	10c00047 	ldb	r3,1(r2)
   212a4:	10800044 	addi	r2,r2,1
   212a8:	183fe726 	beq	r3,zero,21248 <strlen+0x24>
   212ac:	10c00047 	ldb	r3,1(r2)
   212b0:	10800044 	addi	r2,r2,1
   212b4:	183ffa1e 	bne	r3,zero,212a0 <strlen+0x7c>
   212b8:	003fe306 	br	21248 <strlen+0x24>

000212bc <___vfprintf_internal_r>:
   212bc:	deffbf04 	addi	sp,sp,-260
   212c0:	dfc04015 	stw	ra,256(sp)
   212c4:	dd803d15 	stw	r22,244(sp)
   212c8:	dcc03a15 	stw	r19,232(sp)
   212cc:	dc803915 	stw	r18,228(sp)
   212d0:	2027883a 	mov	r19,r4
   212d4:	2825883a 	mov	r18,r5
   212d8:	302d883a 	mov	r22,r6
   212dc:	d9c00615 	stw	r7,24(sp)
   212e0:	df003f15 	stw	fp,252(sp)
   212e4:	ddc03e15 	stw	r23,248(sp)
   212e8:	dd403c15 	stw	r21,240(sp)
   212ec:	dd003b15 	stw	r20,236(sp)
   212f0:	dc403815 	stw	r17,224(sp)
   212f4:	dc003715 	stw	r16,220(sp)
   212f8:	0027ca00 	call	27ca0 <_localeconv_r>
   212fc:	10800017 	ldw	r2,0(r2)
   21300:	1009883a 	mov	r4,r2
   21304:	d8800d15 	stw	r2,52(sp)
   21308:	00212240 	call	21224 <strlen>
   2130c:	d8800b15 	stw	r2,44(sp)
   21310:	98000226 	beq	r19,zero,2131c <___vfprintf_internal_r+0x60>
   21314:	98800e17 	ldw	r2,56(r19)
   21318:	1001e026 	beq	r2,zero,21a9c <___vfprintf_internal_r+0x7e0>
   2131c:	9080030b 	ldhu	r2,12(r18)
   21320:	10c8000c 	andi	r3,r2,8192
   21324:	1800061e 	bne	r3,zero,21340 <___vfprintf_internal_r+0x84>
   21328:	90c01917 	ldw	r3,100(r18)
   2132c:	0137ffc4 	movi	r4,-8193
   21330:	10880014 	ori	r2,r2,8192
   21334:	1906703a 	and	r3,r3,r4
   21338:	9080030d 	sth	r2,12(r18)
   2133c:	90c01915 	stw	r3,100(r18)
   21340:	10c0020c 	andi	r3,r2,8
   21344:	1800fc26 	beq	r3,zero,21738 <___vfprintf_internal_r+0x47c>
   21348:	90c00417 	ldw	r3,16(r18)
   2134c:	1800fa26 	beq	r3,zero,21738 <___vfprintf_internal_r+0x47c>
   21350:	1080068c 	andi	r2,r2,26
   21354:	10800298 	cmpnei	r2,r2,10
   21358:	1000ff26 	beq	r2,zero,21758 <___vfprintf_internal_r+0x49c>
   2135c:	d8802704 	addi	r2,sp,156
   21360:	b02f883a 	mov	r23,r22
   21364:	d8801a15 	stw	r2,104(sp)
   21368:	d8001c15 	stw	zero,112(sp)
   2136c:	d8001b15 	stw	zero,108(sp)
   21370:	d8000815 	stw	zero,32(sp)
   21374:	d8000915 	stw	zero,36(sp)
   21378:	d8000a15 	stw	zero,40(sp)
   2137c:	d8000c15 	stw	zero,48(sp)
   21380:	d8001015 	stw	zero,64(sp)
   21384:	d8000515 	stw	zero,20(sp)
   21388:	102d883a 	mov	r22,r2
   2138c:	b8800007 	ldb	r2,0(r23)
   21390:	1000d726 	beq	r2,zero,216f0 <___vfprintf_internal_r+0x434>
   21394:	b821883a 	mov	r16,r23
   21398:	00000306 	br	213a8 <___vfprintf_internal_r+0xec>
   2139c:	80800047 	ldb	r2,1(r16)
   213a0:	84000044 	addi	r16,r16,1
   213a4:	10012226 	beq	r2,zero,21830 <___vfprintf_internal_r+0x574>
   213a8:	10800958 	cmpnei	r2,r2,37
   213ac:	103ffb1e 	bne	r2,zero,2139c <___vfprintf_internal_r+0xe0>
   213b0:	85e3c83a 	sub	r17,r16,r23
   213b4:	85c1201e 	bne	r16,r23,21838 <___vfprintf_internal_r+0x57c>
   213b8:	80800003 	ldbu	r2,0(r16)
   213bc:	10803fcc 	andi	r2,r2,255
   213c0:	1080201c 	xori	r2,r2,128
   213c4:	10bfe004 	addi	r2,r2,-128
   213c8:	1000c926 	beq	r2,zero,216f0 <___vfprintf_internal_r+0x434>
   213cc:	82c00047 	ldb	r11,1(r16)
   213d0:	85c00044 	addi	r23,r16,1
   213d4:	d8001345 	stb	zero,77(sp)
   213d8:	0009883a 	mov	r4,zero
   213dc:	000b883a 	mov	r5,zero
   213e0:	023fffc4 	movi	r8,-1
   213e4:	0021883a 	mov	r16,zero
   213e8:	0019883a 	mov	r12,zero
   213ec:	bdc00044 	addi	r23,r23,1
   213f0:	5839883a 	mov	fp,r11
   213f4:	e0bff804 	addi	r2,fp,-32
   213f8:	10c01668 	cmpgeui	r3,r2,89
   213fc:	18006c1e 	bne	r3,zero,215b0 <___vfprintf_internal_r+0x2f4>
   21400:	100490ba 	slli	r2,r2,2
   21404:	00c000b4 	movhi	r3,2
   21408:	10c7883a 	add	r3,r2,r3
   2140c:	18850517 	ldw	r2,5140(r3)
   21410:	1000683a 	jmp	r2
   21414:	00021cc4 	movi	zero,2163
   21418:	000215b0 	cmpltui	zero,zero,2134
   2141c:	000215b0 	cmpltui	zero,zero,2134
   21420:	00021cb8 	rdprs	zero,zero,2162
   21424:	000215b0 	cmpltui	zero,zero,2134
   21428:	000215b0 	cmpltui	zero,zero,2134
   2142c:	000215b0 	cmpltui	zero,zero,2134
   21430:	000215b0 	cmpltui	zero,zero,2134
   21434:	000215b0 	cmpltui	zero,zero,2134
   21438:	000215b0 	cmpltui	zero,zero,2134
   2143c:	00021b40 	call	21b4 <__reset-0x1de4c>
   21440:	00021ca8 	cmpgeui	zero,zero,2162
   21444:	000215b0 	cmpltui	zero,zero,2134
   21448:	00021b58 	cmpnei	zero,zero,2157
   2144c:	00021b64 	muli	zero,zero,2157
   21450:	000215b0 	cmpltui	zero,zero,2134
   21454:	00021c9c 	xori	zero,zero,2162
   21458:	00021578 	rdprs	zero,zero,2133
   2145c:	00021578 	rdprs	zero,zero,2133
   21460:	00021578 	rdprs	zero,zero,2133
   21464:	00021578 	rdprs	zero,zero,2133
   21468:	00021578 	rdprs	zero,zero,2133
   2146c:	00021578 	rdprs	zero,zero,2133
   21470:	00021578 	rdprs	zero,zero,2133
   21474:	00021578 	rdprs	zero,zero,2133
   21478:	00021578 	rdprs	zero,zero,2133
   2147c:	000215b0 	cmpltui	zero,zero,2134
   21480:	000215b0 	cmpltui	zero,zero,2134
   21484:	000215b0 	cmpltui	zero,zero,2134
   21488:	000215b0 	cmpltui	zero,zero,2134
   2148c:	000215b0 	cmpltui	zero,zero,2134
   21490:	000215b0 	cmpltui	zero,zero,2134
   21494:	000215b0 	cmpltui	zero,zero,2134
   21498:	000215b0 	cmpltui	zero,zero,2134
   2149c:	000215b0 	cmpltui	zero,zero,2134
   214a0:	000215b0 	cmpltui	zero,zero,2134
   214a4:	00021bb0 	cmpltui	zero,zero,2158
   214a8:	00021894 	movui	zero,2146
   214ac:	000215b0 	cmpltui	zero,zero,2134
   214b0:	00021894 	movui	zero,2146
   214b4:	000215b0 	cmpltui	zero,zero,2134
   214b8:	000215b0 	cmpltui	zero,zero,2134
   214bc:	000215b0 	cmpltui	zero,zero,2134
   214c0:	000215b0 	cmpltui	zero,zero,2134
   214c4:	00021e44 	movi	zero,2169
   214c8:	000215b0 	cmpltui	zero,zero,2134
   214cc:	000215b0 	cmpltui	zero,zero,2134
   214d0:	000217c8 	cmpgei	zero,zero,2143
   214d4:	000215b0 	cmpltui	zero,zero,2134
   214d8:	000215b0 	cmpltui	zero,zero,2134
   214dc:	000215b0 	cmpltui	zero,zero,2134
   214e0:	000215b0 	cmpltui	zero,zero,2134
   214e4:	000215b0 	cmpltui	zero,zero,2134
   214e8:	000217a0 	cmpeqi	zero,zero,2142
   214ec:	000215b0 	cmpltui	zero,zero,2134
   214f0:	000215b0 	cmpltui	zero,zero,2134
   214f4:	00021e84 	movi	zero,2170
   214f8:	000215b0 	cmpltui	zero,zero,2134
   214fc:	000215b0 	cmpltui	zero,zero,2134
   21500:	000215b0 	cmpltui	zero,zero,2134
   21504:	000215b0 	cmpltui	zero,zero,2134
   21508:	000215b0 	cmpltui	zero,zero,2134
   2150c:	000215b0 	cmpltui	zero,zero,2134
   21510:	000215b0 	cmpltui	zero,zero,2134
   21514:	000215b0 	cmpltui	zero,zero,2134
   21518:	000215b0 	cmpltui	zero,zero,2134
   2151c:	000215b0 	cmpltui	zero,zero,2134
   21520:	00021e5c 	xori	zero,zero,2169
   21524:	00021aa8 	cmpgeui	zero,zero,2154
   21528:	00021894 	movui	zero,2146
   2152c:	00021894 	movui	zero,2146
   21530:	00021894 	movui	zero,2146
   21534:	00021e50 	cmplti	zero,zero,2169
   21538:	00021aa8 	cmpgeui	zero,zero,2154
   2153c:	000215b0 	cmpltui	zero,zero,2134
   21540:	000215b0 	cmpltui	zero,zero,2134
   21544:	00021cf0 	cmpltui	zero,zero,2163
   21548:	000215b0 	cmpltui	zero,zero,2134
   2154c:	00021e04 	movi	zero,2168
   21550:	000217cc 	andi	zero,zero,2143
   21554:	00021dc4 	movi	zero,2167
   21558:	00021db8 	rdprs	zero,zero,2166
   2155c:	000215b0 	cmpltui	zero,zero,2134
   21560:	00021d60 	cmpeqi	zero,zero,2165
   21564:	000215b0 	cmpltui	zero,zero,2134
   21568:	000217a4 	muli	zero,zero,2142
   2156c:	000215b0 	cmpltui	zero,zero,2134
   21570:	000215b0 	cmpltui	zero,zero,2134
   21574:	00021d18 	cmpnei	zero,zero,2164
   21578:	0021883a 	mov	r16,zero
   2157c:	e0fff404 	addi	r3,fp,-48
   21580:	800490ba 	slli	r2,r16,2
   21584:	bf000007 	ldb	fp,0(r23)
   21588:	bdc00044 	addi	r23,r23,1
   2158c:	1421883a 	add	r16,r2,r16
   21590:	8421883a 	add	r16,r16,r16
   21594:	1c21883a 	add	r16,r3,r16
   21598:	e0fff404 	addi	r3,fp,-48
   2159c:	188002b0 	cmpltui	r2,r3,10
   215a0:	103ff71e 	bne	r2,zero,21580 <___vfprintf_internal_r+0x2c4>
   215a4:	e0bff804 	addi	r2,fp,-32
   215a8:	10c01668 	cmpgeui	r3,r2,89
   215ac:	183f9426 	beq	r3,zero,21400 <___vfprintf_internal_r+0x144>
   215b0:	21003fcc 	andi	r4,r4,255
   215b4:	2006561e 	bne	r4,zero,22f10 <___vfprintf_internal_r+0x1c54>
   215b8:	e0004d26 	beq	fp,zero,216f0 <___vfprintf_internal_r+0x434>
   215bc:	df001d05 	stb	fp,116(sp)
   215c0:	d8001345 	stb	zero,77(sp)
   215c4:	05000044 	movi	r20,1
   215c8:	05400044 	movi	r21,1
   215cc:	dc401d04 	addi	r17,sp,116
   215d0:	db000415 	stw	r12,16(sp)
   215d4:	0011883a 	mov	r8,zero
   215d8:	d8000715 	stw	zero,28(sp)
   215dc:	d8800417 	ldw	r2,16(sp)
   215e0:	1380008c 	andi	r14,r2,2
   215e4:	70000126 	beq	r14,zero,215ec <___vfprintf_internal_r+0x330>
   215e8:	a5000084 	addi	r20,r20,2
   215ec:	d8800417 	ldw	r2,16(sp)
   215f0:	d8c01c17 	ldw	r3,112(sp)
   215f4:	1340210c 	andi	r13,r2,132
   215f8:	6800021e 	bne	r13,zero,21604 <___vfprintf_internal_r+0x348>
   215fc:	850fc83a 	sub	r7,r16,r20
   21600:	01c36a16 	blt	zero,r7,223ac <___vfprintf_internal_r+0x10f0>
   21604:	d8801347 	ldb	r2,77(sp)
   21608:	10000c26 	beq	r2,zero,2163c <___vfprintf_internal_r+0x380>
   2160c:	d8801b17 	ldw	r2,108(sp)
   21610:	d9001344 	addi	r4,sp,77
   21614:	18c00044 	addi	r3,r3,1
   21618:	10800044 	addi	r2,r2,1
   2161c:	b1000015 	stw	r4,0(r22)
   21620:	01000044 	movi	r4,1
   21624:	d8801b15 	stw	r2,108(sp)
   21628:	b1000115 	stw	r4,4(r22)
   2162c:	d8c01c15 	stw	r3,112(sp)
   21630:	10800208 	cmpgei	r2,r2,8
   21634:	10039e1e 	bne	r2,zero,224b0 <___vfprintf_internal_r+0x11f4>
   21638:	b5800204 	addi	r22,r22,8
   2163c:	70000c26 	beq	r14,zero,21670 <___vfprintf_internal_r+0x3b4>
   21640:	d8801b17 	ldw	r2,108(sp)
   21644:	d9001384 	addi	r4,sp,78
   21648:	18c00084 	addi	r3,r3,2
   2164c:	10800044 	addi	r2,r2,1
   21650:	b1000015 	stw	r4,0(r22)
   21654:	01000084 	movi	r4,2
   21658:	d8801b15 	stw	r2,108(sp)
   2165c:	b1000115 	stw	r4,4(r22)
   21660:	d8c01c15 	stw	r3,112(sp)
   21664:	10800208 	cmpgei	r2,r2,8
   21668:	10039f1e 	bne	r2,zero,224e8 <___vfprintf_internal_r+0x122c>
   2166c:	b5800204 	addi	r22,r22,8
   21670:	6b402018 	cmpnei	r13,r13,128
   21674:	68025b26 	beq	r13,zero,21fe4 <___vfprintf_internal_r+0xd28>
   21678:	4551c83a 	sub	r8,r8,r21
   2167c:	02029316 	blt	zero,r8,220cc <___vfprintf_internal_r+0xe10>
   21680:	d8800417 	ldw	r2,16(sp)
   21684:	1080400c 	andi	r2,r2,256
   21688:	1002101e 	bne	r2,zero,21ecc <___vfprintf_internal_r+0xc10>
   2168c:	d8801b17 	ldw	r2,108(sp)
   21690:	1d47883a 	add	r3,r3,r21
   21694:	b4400015 	stw	r17,0(r22)
   21698:	10800044 	addi	r2,r2,1
   2169c:	b5400115 	stw	r21,4(r22)
   216a0:	d8801b15 	stw	r2,108(sp)
   216a4:	d8c01c15 	stw	r3,112(sp)
   216a8:	10800208 	cmpgei	r2,r2,8
   216ac:	1002fc1e 	bne	r2,zero,222a0 <___vfprintf_internal_r+0xfe4>
   216b0:	b5800204 	addi	r22,r22,8
   216b4:	d8800417 	ldw	r2,16(sp)
   216b8:	1440010c 	andi	r17,r2,4
   216bc:	88000226 	beq	r17,zero,216c8 <___vfprintf_internal_r+0x40c>
   216c0:	8523c83a 	sub	r17,r16,r20
   216c4:	0440c616 	blt	zero,r17,219e0 <___vfprintf_internal_r+0x724>
   216c8:	8500010e 	bge	r16,r20,216d0 <___vfprintf_internal_r+0x414>
   216cc:	a021883a 	mov	r16,r20
   216d0:	d8800517 	ldw	r2,20(sp)
   216d4:	1405883a 	add	r2,r2,r16
   216d8:	d8800515 	stw	r2,20(sp)
   216dc:	1802c21e 	bne	r3,zero,221e8 <___vfprintf_internal_r+0xf2c>
   216e0:	b8800007 	ldb	r2,0(r23)
   216e4:	d8001b15 	stw	zero,108(sp)
   216e8:	dd802704 	addi	r22,sp,156
   216ec:	103f291e 	bne	r2,zero,21394 <___vfprintf_internal_r+0xd8>
   216f0:	d8801c17 	ldw	r2,112(sp)
   216f4:	1006011e 	bne	r2,zero,22efc <___vfprintf_internal_r+0x1c40>
   216f8:	9080030b 	ldhu	r2,12(r18)
   216fc:	1080100c 	andi	r2,r2,64
   21700:	1006991e 	bne	r2,zero,23168 <___vfprintf_internal_r+0x1eac>
   21704:	d8800517 	ldw	r2,20(sp)
   21708:	dfc04017 	ldw	ra,256(sp)
   2170c:	df003f17 	ldw	fp,252(sp)
   21710:	ddc03e17 	ldw	r23,248(sp)
   21714:	dd803d17 	ldw	r22,244(sp)
   21718:	dd403c17 	ldw	r21,240(sp)
   2171c:	dd003b17 	ldw	r20,236(sp)
   21720:	dcc03a17 	ldw	r19,232(sp)
   21724:	dc803917 	ldw	r18,228(sp)
   21728:	dc403817 	ldw	r17,224(sp)
   2172c:	dc003717 	ldw	r16,220(sp)
   21730:	dec04104 	addi	sp,sp,260
   21734:	f800283a 	ret
   21738:	900b883a 	mov	r5,r18
   2173c:	9809883a 	mov	r4,r19
   21740:	0024d4c0 	call	24d4c <__swsetup_r>
   21744:	1006881e 	bne	r2,zero,23168 <___vfprintf_internal_r+0x1eac>
   21748:	9080030b 	ldhu	r2,12(r18)
   2174c:	1080068c 	andi	r2,r2,26
   21750:	10800298 	cmpnei	r2,r2,10
   21754:	103f011e 	bne	r2,zero,2135c <___vfprintf_internal_r+0xa0>
   21758:	9080038f 	ldh	r2,14(r18)
   2175c:	103eff16 	blt	r2,zero,2135c <___vfprintf_internal_r+0xa0>
   21760:	d9c00617 	ldw	r7,24(sp)
   21764:	b00d883a 	mov	r6,r22
   21768:	900b883a 	mov	r5,r18
   2176c:	9809883a 	mov	r4,r19
   21770:	dfc04017 	ldw	ra,256(sp)
   21774:	df003f17 	ldw	fp,252(sp)
   21778:	ddc03e17 	ldw	r23,248(sp)
   2177c:	dd803d17 	ldw	r22,244(sp)
   21780:	dd403c17 	ldw	r21,240(sp)
   21784:	dd003b17 	ldw	r20,236(sp)
   21788:	dcc03a17 	ldw	r19,232(sp)
   2178c:	dc803917 	ldw	r18,228(sp)
   21790:	dc403817 	ldw	r17,224(sp)
   21794:	dc003717 	ldw	r16,220(sp)
   21798:	dec04104 	addi	sp,sp,260
   2179c:	00232f81 	jmpi	232f8 <__sbprintf>
   217a0:	63000414 	ori	r12,r12,16
   217a4:	6080080c 	andi	r2,r12,32
   217a8:	10008126 	beq	r2,zero,219b0 <___vfprintf_internal_r+0x6f4>
   217ac:	d8c00617 	ldw	r3,24(sp)
   217b0:	00800044 	movi	r2,1
   217b4:	1d000017 	ldw	r20,0(r3)
   217b8:	1d400117 	ldw	r21,4(r3)
   217bc:	18c00204 	addi	r3,r3,8
   217c0:	d8c00615 	stw	r3,24(sp)
   217c4:	00000906 	br	217ec <___vfprintf_internal_r+0x530>
   217c8:	63000414 	ori	r12,r12,16
   217cc:	6080080c 	andi	r2,r12,32
   217d0:	10006b26 	beq	r2,zero,21980 <___vfprintf_internal_r+0x6c4>
   217d4:	d8c00617 	ldw	r3,24(sp)
   217d8:	0005883a 	mov	r2,zero
   217dc:	1d000017 	ldw	r20,0(r3)
   217e0:	1d400117 	ldw	r21,4(r3)
   217e4:	18c00204 	addi	r3,r3,8
   217e8:	d8c00615 	stw	r3,24(sp)
   217ec:	001b883a 	mov	r13,zero
   217f0:	db401345 	stb	r13,77(sp)
   217f4:	40ffffe0 	cmpeqi	r3,r8,-1
   217f8:	1801091e 	bne	r3,zero,21c20 <___vfprintf_internal_r+0x964>
   217fc:	047fdfc4 	movi	r17,-129
   21800:	6448703a 	and	r4,r12,r17
   21804:	a546b03a 	or	r3,r20,r21
   21808:	d9000415 	stw	r4,16(sp)
   2180c:	1802e51e 	bne	r3,zero,223a4 <___vfprintf_internal_r+0x10e8>
   21810:	40025f1e 	bne	r8,zero,22190 <___vfprintf_internal_r+0xed4>
   21814:	1003ad1e 	bne	r2,zero,226cc <___vfprintf_internal_r+0x1410>
   21818:	6540004c 	andi	r21,r12,1
   2181c:	a803e526 	beq	r21,zero,227b4 <___vfprintf_internal_r+0x14f8>
   21820:	00800c04 	movi	r2,48
   21824:	d88026c5 	stb	r2,155(sp)
   21828:	dc4026c4 	addi	r17,sp,155
   2182c:	0000ba06 	br	21b18 <___vfprintf_internal_r+0x85c>
   21830:	85e3c83a 	sub	r17,r16,r23
   21834:	85ffae26 	beq	r16,r23,216f0 <___vfprintf_internal_r+0x434>
   21838:	d8c01c17 	ldw	r3,112(sp)
   2183c:	d8801b17 	ldw	r2,108(sp)
   21840:	b5c00015 	stw	r23,0(r22)
   21844:	1c47883a 	add	r3,r3,r17
   21848:	10800044 	addi	r2,r2,1
   2184c:	d8801b15 	stw	r2,108(sp)
   21850:	b4400115 	stw	r17,4(r22)
   21854:	d8c01c15 	stw	r3,112(sp)
   21858:	10800208 	cmpgei	r2,r2,8
   2185c:	1000061e 	bne	r2,zero,21878 <___vfprintf_internal_r+0x5bc>
   21860:	b5800204 	addi	r22,r22,8
   21864:	d8c00517 	ldw	r3,20(sp)
   21868:	80800003 	ldbu	r2,0(r16)
   2186c:	1c47883a 	add	r3,r3,r17
   21870:	d8c00515 	stw	r3,20(sp)
   21874:	003ed106 	br	213bc <___vfprintf_internal_r+0x100>
   21878:	d9801a04 	addi	r6,sp,104
   2187c:	900b883a 	mov	r5,r18
   21880:	9809883a 	mov	r4,r19
   21884:	002f1040 	call	2f104 <__sprint_r>
   21888:	103f9b1e 	bne	r2,zero,216f8 <___vfprintf_internal_r+0x43c>
   2188c:	dd802704 	addi	r22,sp,156
   21890:	003ff406 	br	21864 <___vfprintf_internal_r+0x5a8>
   21894:	21003fcc 	andi	r4,r4,255
   21898:	2006221e 	bne	r4,zero,23124 <___vfprintf_internal_r+0x1e68>
   2189c:	d8c00617 	ldw	r3,24(sp)
   218a0:	6080020c 	andi	r2,r12,8
   218a4:	19000204 	addi	r4,r3,8
   218a8:	d9000e15 	stw	r4,56(sp)
   218ac:	1003c31e 	bne	r2,zero,227bc <___vfprintf_internal_r+0x1500>
   218b0:	d8800617 	ldw	r2,24(sp)
   218b4:	10c00017 	ldw	r3,0(r2)
   218b8:	10800117 	ldw	r2,4(r2)
   218bc:	d8c00915 	stw	r3,36(sp)
   218c0:	d8800a15 	stw	r2,40(sp)
   218c4:	dd400a17 	ldw	r21,40(sp)
   218c8:	dd000917 	ldw	r20,36(sp)
   218cc:	00a00034 	movhi	r2,32768
   218d0:	10bfffc4 	addi	r2,r2,-1
   218d4:	a8a2703a 	and	r17,r21,r2
   218d8:	01dffc34 	movhi	r7,32752
   218dc:	01bfffc4 	movi	r6,-1
   218e0:	39ffffc4 	addi	r7,r7,-1
   218e4:	a009883a 	mov	r4,r20
   218e8:	880b883a 	mov	r5,r17
   218ec:	da000615 	stw	r8,24(sp)
   218f0:	db000415 	stw	r12,16(sp)
   218f4:	00361080 	call	36108 <__unorddf2>
   218f8:	db000417 	ldw	r12,16(sp)
   218fc:	da000617 	ldw	r8,24(sp)
   21900:	10044d1e 	bne	r2,zero,22a38 <___vfprintf_internal_r+0x177c>
   21904:	01dffc34 	movhi	r7,32752
   21908:	01bfffc4 	movi	r6,-1
   2190c:	39ffffc4 	addi	r7,r7,-1
   21910:	a009883a 	mov	r4,r20
   21914:	880b883a 	mov	r5,r17
   21918:	0034f040 	call	34f04 <__ledf2>
   2191c:	db000417 	ldw	r12,16(sp)
   21920:	da000617 	ldw	r8,24(sp)
   21924:	0084440e 	bge	zero,r2,22a38 <___vfprintf_internal_r+0x177c>
   21928:	000d883a 	mov	r6,zero
   2192c:	000f883a 	mov	r7,zero
   21930:	a009883a 	mov	r4,r20
   21934:	a80b883a 	mov	r5,r21
   21938:	0034f040 	call	34f04 <__ledf2>
   2193c:	db000417 	ldw	r12,16(sp)
   21940:	10055b16 	blt	r2,zero,22eb0 <___vfprintf_internal_r+0x1bf4>
   21944:	db401343 	ldbu	r13,77(sp)
   21948:	e0801210 	cmplti	r2,fp,72
   2194c:	1005491e 	bne	r2,zero,22e74 <___vfprintf_internal_r+0x1bb8>
   21950:	04400134 	movhi	r17,4
   21954:	8c607704 	addi	r17,r17,-32292
   21958:	00bfdfc4 	movi	r2,-129
   2195c:	6084703a 	and	r2,r12,r2
   21960:	d8800415 	stw	r2,16(sp)
   21964:	d8800e17 	ldw	r2,56(sp)
   21968:	050000c4 	movi	r20,3
   2196c:	054000c4 	movi	r21,3
   21970:	d8800615 	stw	r2,24(sp)
   21974:	0011883a 	mov	r8,zero
   21978:	d8000715 	stw	zero,28(sp)
   2197c:	00006a06 	br	21b28 <___vfprintf_internal_r+0x86c>
   21980:	d8c00617 	ldw	r3,24(sp)
   21984:	6080040c 	andi	r2,r12,16
   21988:	1d000017 	ldw	r20,0(r3)
   2198c:	18c00104 	addi	r3,r3,4
   21990:	1000031e 	bne	r2,zero,219a0 <___vfprintf_internal_r+0x6e4>
   21994:	6080100c 	andi	r2,r12,64
   21998:	10000126 	beq	r2,zero,219a0 <___vfprintf_internal_r+0x6e4>
   2199c:	a53fffcc 	andi	r20,r20,65535
   219a0:	002b883a 	mov	r21,zero
   219a4:	d8c00615 	stw	r3,24(sp)
   219a8:	0005883a 	mov	r2,zero
   219ac:	003f8f06 	br	217ec <___vfprintf_internal_r+0x530>
   219b0:	d8c00617 	ldw	r3,24(sp)
   219b4:	6080040c 	andi	r2,r12,16
   219b8:	1d000017 	ldw	r20,0(r3)
   219bc:	18c00104 	addi	r3,r3,4
   219c0:	1000031e 	bne	r2,zero,219d0 <___vfprintf_internal_r+0x714>
   219c4:	6080100c 	andi	r2,r12,64
   219c8:	10000126 	beq	r2,zero,219d0 <___vfprintf_internal_r+0x714>
   219cc:	a53fffcc 	andi	r20,r20,65535
   219d0:	002b883a 	mov	r21,zero
   219d4:	d8c00615 	stw	r3,24(sp)
   219d8:	00800044 	movi	r2,1
   219dc:	003f8306 	br	217ec <___vfprintf_internal_r+0x530>
   219e0:	03000134 	movhi	r12,4
   219e4:	89000450 	cmplti	r4,r17,17
   219e8:	d8801b17 	ldw	r2,108(sp)
   219ec:	63208b04 	addi	r12,r12,-32212
   219f0:	20001b1e 	bne	r4,zero,21a60 <___vfprintf_internal_r+0x7a4>
   219f4:	05400404 	movi	r21,16
   219f8:	6039883a 	mov	fp,r12
   219fc:	00000406 	br	21a10 <___vfprintf_internal_r+0x754>
   21a00:	8c7ffc04 	addi	r17,r17,-16
   21a04:	89000448 	cmpgei	r4,r17,17
   21a08:	b5800204 	addi	r22,r22,8
   21a0c:	20001326 	beq	r4,zero,21a5c <___vfprintf_internal_r+0x7a0>
   21a10:	10800044 	addi	r2,r2,1
   21a14:	18c00404 	addi	r3,r3,16
   21a18:	b7000015 	stw	fp,0(r22)
   21a1c:	b5400115 	stw	r21,4(r22)
   21a20:	d8c01c15 	stw	r3,112(sp)
   21a24:	d8801b15 	stw	r2,108(sp)
   21a28:	11000208 	cmpgei	r4,r2,8
   21a2c:	203ff426 	beq	r4,zero,21a00 <___vfprintf_internal_r+0x744>
   21a30:	d9801a04 	addi	r6,sp,104
   21a34:	900b883a 	mov	r5,r18
   21a38:	9809883a 	mov	r4,r19
   21a3c:	002f1040 	call	2f104 <__sprint_r>
   21a40:	103f2d1e 	bne	r2,zero,216f8 <___vfprintf_internal_r+0x43c>
   21a44:	8c7ffc04 	addi	r17,r17,-16
   21a48:	89000448 	cmpgei	r4,r17,17
   21a4c:	d8c01c17 	ldw	r3,112(sp)
   21a50:	d8801b17 	ldw	r2,108(sp)
   21a54:	dd802704 	addi	r22,sp,156
   21a58:	203fed1e 	bne	r4,zero,21a10 <___vfprintf_internal_r+0x754>
   21a5c:	e019883a 	mov	r12,fp
   21a60:	10800044 	addi	r2,r2,1
   21a64:	1c47883a 	add	r3,r3,r17
   21a68:	d8801b15 	stw	r2,108(sp)
   21a6c:	b3000015 	stw	r12,0(r22)
   21a70:	b4400115 	stw	r17,4(r22)
   21a74:	d8c01c15 	stw	r3,112(sp)
   21a78:	10800210 	cmplti	r2,r2,8
   21a7c:	103f121e 	bne	r2,zero,216c8 <___vfprintf_internal_r+0x40c>
   21a80:	d9801a04 	addi	r6,sp,104
   21a84:	900b883a 	mov	r5,r18
   21a88:	9809883a 	mov	r4,r19
   21a8c:	002f1040 	call	2f104 <__sprint_r>
   21a90:	103f191e 	bne	r2,zero,216f8 <___vfprintf_internal_r+0x43c>
   21a94:	d8c01c17 	ldw	r3,112(sp)
   21a98:	003f0b06 	br	216c8 <___vfprintf_internal_r+0x40c>
   21a9c:	9809883a 	mov	r4,r19
   21aa0:	0026e840 	call	26e84 <__sinit>
   21aa4:	003e1d06 	br	2131c <___vfprintf_internal_r+0x60>
   21aa8:	21003fcc 	andi	r4,r4,255
   21aac:	20059f1e 	bne	r4,zero,2312c <___vfprintf_internal_r+0x1e70>
   21ab0:	6080080c 	andi	r2,r12,32
   21ab4:	10004326 	beq	r2,zero,21bc4 <___vfprintf_internal_r+0x908>
   21ab8:	d8c00617 	ldw	r3,24(sp)
   21abc:	18800117 	ldw	r2,4(r3)
   21ac0:	1d000017 	ldw	r20,0(r3)
   21ac4:	18c00204 	addi	r3,r3,8
   21ac8:	d8c00615 	stw	r3,24(sp)
   21acc:	102b883a 	mov	r21,r2
   21ad0:	10004a16 	blt	r2,zero,21bfc <___vfprintf_internal_r+0x940>
   21ad4:	40bfffd8 	cmpnei	r2,r8,-1
   21ad8:	db401343 	ldbu	r13,77(sp)
   21adc:	10000626 	beq	r2,zero,21af8 <___vfprintf_internal_r+0x83c>
   21ae0:	047fdfc4 	movi	r17,-129
   21ae4:	6446703a 	and	r3,r12,r17
   21ae8:	a544b03a 	or	r2,r20,r21
   21aec:	d8c00415 	stw	r3,16(sp)
   21af0:	1002f526 	beq	r2,zero,226c8 <___vfprintf_internal_r+0x140c>
   21af4:	db000417 	ldw	r12,16(sp)
   21af8:	a8037f1e 	bne	r21,zero,228f8 <___vfprintf_internal_r+0x163c>
   21afc:	a08002a8 	cmpgeui	r2,r20,10
   21b00:	10037d1e 	bne	r2,zero,228f8 <___vfprintf_internal_r+0x163c>
   21b04:	a5000c04 	addi	r20,r20,48
   21b08:	dd0026c5 	stb	r20,155(sp)
   21b0c:	db000415 	stw	r12,16(sp)
   21b10:	05400044 	movi	r21,1
   21b14:	dc4026c4 	addi	r17,sp,155
   21b18:	a829883a 	mov	r20,r21
   21b1c:	aa00010e 	bge	r21,r8,21b24 <___vfprintf_internal_r+0x868>
   21b20:	4029883a 	mov	r20,r8
   21b24:	d8000715 	stw	zero,28(sp)
   21b28:	6b403fcc 	andi	r13,r13,255
   21b2c:	6b40201c 	xori	r13,r13,128
   21b30:	6b7fe004 	addi	r13,r13,-128
   21b34:	683ea926 	beq	r13,zero,215dc <___vfprintf_internal_r+0x320>
   21b38:	a5000044 	addi	r20,r20,1
   21b3c:	003ea706 	br	215dc <___vfprintf_internal_r+0x320>
   21b40:	d8800617 	ldw	r2,24(sp)
   21b44:	14000017 	ldw	r16,0(r2)
   21b48:	10800104 	addi	r2,r2,4
   21b4c:	8003160e 	bge	r16,zero,227a8 <___vfprintf_internal_r+0x14ec>
   21b50:	0421c83a 	sub	r16,zero,r16
   21b54:	d8800615 	stw	r2,24(sp)
   21b58:	bac00007 	ldb	r11,0(r23)
   21b5c:	63000114 	ori	r12,r12,4
   21b60:	003e2206 	br	213ec <___vfprintf_internal_r+0x130>
   21b64:	bf000007 	ldb	fp,0(r23)
   21b68:	b8800044 	addi	r2,r23,1
   21b6c:	e0c00aa0 	cmpeqi	r3,fp,42
   21b70:	1805cb1e 	bne	r3,zero,232a0 <___vfprintf_internal_r+0x1fe4>
   21b74:	e0fff404 	addi	r3,fp,-48
   21b78:	198002b0 	cmpltui	r6,r3,10
   21b7c:	102f883a 	mov	r23,r2
   21b80:	0011883a 	mov	r8,zero
   21b84:	303e1b26 	beq	r6,zero,213f4 <___vfprintf_internal_r+0x138>
   21b88:	400490ba 	slli	r2,r8,2
   21b8c:	bf000007 	ldb	fp,0(r23)
   21b90:	bdc00044 	addi	r23,r23,1
   21b94:	1211883a 	add	r8,r2,r8
   21b98:	4211883a 	add	r8,r8,r8
   21b9c:	40d1883a 	add	r8,r8,r3
   21ba0:	e0fff404 	addi	r3,fp,-48
   21ba4:	188002b0 	cmpltui	r2,r3,10
   21ba8:	103ff71e 	bne	r2,zero,21b88 <___vfprintf_internal_r+0x8cc>
   21bac:	003e1106 	br	213f4 <___vfprintf_internal_r+0x138>
   21bb0:	21003fcc 	andi	r4,r4,255
   21bb4:	2005551e 	bne	r4,zero,2310c <___vfprintf_internal_r+0x1e50>
   21bb8:	63000414 	ori	r12,r12,16
   21bbc:	6080080c 	andi	r2,r12,32
   21bc0:	103fbd1e 	bne	r2,zero,21ab8 <___vfprintf_internal_r+0x7fc>
   21bc4:	d8c00617 	ldw	r3,24(sp)
   21bc8:	6080040c 	andi	r2,r12,16
   21bcc:	1d000017 	ldw	r20,0(r3)
   21bd0:	18c00104 	addi	r3,r3,4
   21bd4:	1002ea1e 	bne	r2,zero,22780 <___vfprintf_internal_r+0x14c4>
   21bd8:	6080100c 	andi	r2,r12,64
   21bdc:	1002e826 	beq	r2,zero,22780 <___vfprintf_internal_r+0x14c4>
   21be0:	a53fffcc 	andi	r20,r20,65535
   21be4:	a520001c 	xori	r20,r20,32768
   21be8:	a5200004 	addi	r20,r20,-32768
   21bec:	a02bd7fa 	srai	r21,r20,31
   21bf0:	d8c00615 	stw	r3,24(sp)
   21bf4:	a805883a 	mov	r2,r21
   21bf8:	103fb60e 	bge	r2,zero,21ad4 <___vfprintf_internal_r+0x818>
   21bfc:	03400b44 	movi	r13,45
   21c00:	a004c03a 	cmpne	r2,r20,zero
   21c04:	056bc83a 	sub	r21,zero,r21
   21c08:	db401345 	stb	r13,77(sp)
   21c0c:	40ffffe0 	cmpeqi	r3,r8,-1
   21c10:	a8abc83a 	sub	r21,r21,r2
   21c14:	0529c83a 	sub	r20,zero,r20
   21c18:	00800044 	movi	r2,1
   21c1c:	183ef726 	beq	r3,zero,217fc <___vfprintf_internal_r+0x540>
   21c20:	10c00060 	cmpeqi	r3,r2,1
   21c24:	183fb41e 	bne	r3,zero,21af8 <___vfprintf_internal_r+0x83c>
   21c28:	108000a0 	cmpeqi	r2,r2,2
   21c2c:	10015d1e 	bne	r2,zero,221a4 <___vfprintf_internal_r+0xee8>
   21c30:	dc402704 	addi	r17,sp,156
   21c34:	a006d0fa 	srli	r3,r20,3
   21c38:	a808977a 	slli	r4,r21,29
   21c3c:	a82ad0fa 	srli	r21,r21,3
   21c40:	a50001cc 	andi	r20,r20,7
   21c44:	a0800c04 	addi	r2,r20,48
   21c48:	20e8b03a 	or	r20,r4,r3
   21c4c:	88bfffc5 	stb	r2,-1(r17)
   21c50:	a546b03a 	or	r3,r20,r21
   21c54:	880b883a 	mov	r5,r17
   21c58:	8c7fffc4 	addi	r17,r17,-1
   21c5c:	183ff51e 	bne	r3,zero,21c34 <___vfprintf_internal_r+0x978>
   21c60:	60c0004c 	andi	r3,r12,1
   21c64:	18015c26 	beq	r3,zero,221d8 <___vfprintf_internal_r+0xf1c>
   21c68:	10803fcc 	andi	r2,r2,255
   21c6c:	1080201c 	xori	r2,r2,128
   21c70:	10bfe004 	addi	r2,r2,-128
   21c74:	10800c18 	cmpnei	r2,r2,48
   21c78:	10015726 	beq	r2,zero,221d8 <___vfprintf_internal_r+0xf1c>
   21c7c:	00800c04 	movi	r2,48
   21c80:	297fff84 	addi	r5,r5,-2
   21c84:	88bfffc5 	stb	r2,-1(r17)
   21c88:	d8802704 	addi	r2,sp,156
   21c8c:	116bc83a 	sub	r21,r2,r5
   21c90:	db000415 	stw	r12,16(sp)
   21c94:	2823883a 	mov	r17,r5
   21c98:	003f9f06 	br	21b18 <___vfprintf_internal_r+0x85c>
   21c9c:	bac00007 	ldb	r11,0(r23)
   21ca0:	63002014 	ori	r12,r12,128
   21ca4:	003dd106 	br	213ec <___vfprintf_internal_r+0x130>
   21ca8:	bac00007 	ldb	r11,0(r23)
   21cac:	01000044 	movi	r4,1
   21cb0:	01400ac4 	movi	r5,43
   21cb4:	003dcd06 	br	213ec <___vfprintf_internal_r+0x130>
   21cb8:	bac00007 	ldb	r11,0(r23)
   21cbc:	63000054 	ori	r12,r12,1
   21cc0:	003dca06 	br	213ec <___vfprintf_internal_r+0x130>
   21cc4:	28803fcc 	andi	r2,r5,255
   21cc8:	1080201c 	xori	r2,r2,128
   21ccc:	10bfe004 	addi	r2,r2,-128
   21cd0:	bf000003 	ldbu	fp,0(r23)
   21cd4:	10000c1e 	bne	r2,zero,21d08 <___vfprintf_internal_r+0xa4c>
   21cd8:	e2c03fcc 	andi	r11,fp,255
   21cdc:	5ac0201c 	xori	r11,r11,128
   21ce0:	01000044 	movi	r4,1
   21ce4:	01400804 	movi	r5,32
   21ce8:	5affe004 	addi	r11,r11,-128
   21cec:	003dbf06 	br	213ec <___vfprintf_internal_r+0x130>
   21cf0:	bac00007 	ldb	r11,0(r23)
   21cf4:	58801b18 	cmpnei	r2,r11,108
   21cf8:	1002a91e 	bne	r2,zero,227a0 <___vfprintf_internal_r+0x14e4>
   21cfc:	bf000043 	ldbu	fp,1(r23)
   21d00:	63000814 	ori	r12,r12,32
   21d04:	bdc00044 	addi	r23,r23,1
   21d08:	e2c03fcc 	andi	r11,fp,255
   21d0c:	5ac0201c 	xori	r11,r11,128
   21d10:	5affe004 	addi	r11,r11,-128
   21d14:	003db506 	br	213ec <___vfprintf_internal_r+0x130>
   21d18:	21003fcc 	andi	r4,r4,255
   21d1c:	2005051e 	bne	r4,zero,23134 <___vfprintf_internal_r+0x1e78>
   21d20:	00800134 	movhi	r2,4
   21d24:	10a07f04 	addi	r2,r2,-32260
   21d28:	d8800c15 	stw	r2,48(sp)
   21d2c:	6080080c 	andi	r2,r12,32
   21d30:	10005b26 	beq	r2,zero,21ea0 <___vfprintf_internal_r+0xbe4>
   21d34:	d8800617 	ldw	r2,24(sp)
   21d38:	15000017 	ldw	r20,0(r2)
   21d3c:	15400117 	ldw	r21,4(r2)
   21d40:	10800204 	addi	r2,r2,8
   21d44:	d8800615 	stw	r2,24(sp)
   21d48:	6080004c 	andi	r2,r12,1
   21d4c:	10000226 	beq	r2,zero,21d58 <___vfprintf_internal_r+0xa9c>
   21d50:	a544b03a 	or	r2,r20,r21
   21d54:	10029e1e 	bne	r2,zero,227d0 <___vfprintf_internal_r+0x1514>
   21d58:	00800084 	movi	r2,2
   21d5c:	003ea306 	br	217ec <___vfprintf_internal_r+0x530>
   21d60:	d8800617 	ldw	r2,24(sp)
   21d64:	d8001345 	stb	zero,77(sp)
   21d68:	14400017 	ldw	r17,0(r2)
   21d6c:	10c00104 	addi	r3,r2,4
   21d70:	8802bb26 	beq	r17,zero,22860 <___vfprintf_internal_r+0x15a4>
   21d74:	40bfffe0 	cmpeqi	r2,r8,-1
   21d78:	1003c91e 	bne	r2,zero,22ca0 <___vfprintf_internal_r+0x19e4>
   21d7c:	400d883a 	mov	r6,r8
   21d80:	000b883a 	mov	r5,zero
   21d84:	8809883a 	mov	r4,r17
   21d88:	d8c00715 	stw	r3,28(sp)
   21d8c:	db000615 	stw	r12,24(sp)
   21d90:	da000415 	stw	r8,16(sp)
   21d94:	00288380 	call	28838 <memchr>
   21d98:	da000417 	ldw	r8,16(sp)
   21d9c:	db000617 	ldw	r12,24(sp)
   21da0:	d8c00717 	ldw	r3,28(sp)
   21da4:	1004d526 	beq	r2,zero,230fc <___vfprintf_internal_r+0x1e40>
   21da8:	146bc83a 	sub	r21,r2,r17
   21dac:	a829883a 	mov	r20,r21
   21db0:	d8c00615 	stw	r3,24(sp)
   21db4:	003e0606 	br	215d0 <___vfprintf_internal_r+0x314>
   21db8:	bac00007 	ldb	r11,0(r23)
   21dbc:	63000814 	ori	r12,r12,32
   21dc0:	003d8a06 	br	213ec <___vfprintf_internal_r+0x130>
   21dc4:	d8c00617 	ldw	r3,24(sp)
   21dc8:	00800c04 	movi	r2,48
   21dcc:	d8801385 	stb	r2,78(sp)
   21dd0:	00801e04 	movi	r2,120
   21dd4:	01000134 	movhi	r4,4
   21dd8:	d88013c5 	stb	r2,79(sp)
   21ddc:	18800104 	addi	r2,r3,4
   21de0:	d8800615 	stw	r2,24(sp)
   21de4:	20a07f04 	addi	r2,r4,-32260
   21de8:	d8800c15 	stw	r2,48(sp)
   21dec:	1d000017 	ldw	r20,0(r3)
   21df0:	002b883a 	mov	r21,zero
   21df4:	63000094 	ori	r12,r12,2
   21df8:	00800084 	movi	r2,2
   21dfc:	07001e04 	movi	fp,120
   21e00:	003e7a06 	br	217ec <___vfprintf_internal_r+0x530>
   21e04:	21003fcc 	andi	r4,r4,255
   21e08:	2004c41e 	bne	r4,zero,2311c <___vfprintf_internal_r+0x1e60>
   21e0c:	d9000617 	ldw	r4,24(sp)
   21e10:	6080080c 	andi	r2,r12,32
   21e14:	20c00104 	addi	r3,r4,4
   21e18:	1002731e 	bne	r2,zero,227e8 <___vfprintf_internal_r+0x152c>
   21e1c:	6080040c 	andi	r2,r12,16
   21e20:	1002dd1e 	bne	r2,zero,22998 <___vfprintf_internal_r+0x16dc>
   21e24:	6300100c 	andi	r12,r12,64
   21e28:	6002db26 	beq	r12,zero,22998 <___vfprintf_internal_r+0x16dc>
   21e2c:	d8800617 	ldw	r2,24(sp)
   21e30:	d8c00615 	stw	r3,24(sp)
   21e34:	d8c00517 	ldw	r3,20(sp)
   21e38:	10800017 	ldw	r2,0(r2)
   21e3c:	10c0000d 	sth	r3,0(r2)
   21e40:	003d5206 	br	2138c <___vfprintf_internal_r+0xd0>
   21e44:	bac00007 	ldb	r11,0(r23)
   21e48:	63000214 	ori	r12,r12,8
   21e4c:	003d6706 	br	213ec <___vfprintf_internal_r+0x130>
   21e50:	bac00007 	ldb	r11,0(r23)
   21e54:	63001014 	ori	r12,r12,64
   21e58:	003d6406 	br	213ec <___vfprintf_internal_r+0x130>
   21e5c:	d8c00617 	ldw	r3,24(sp)
   21e60:	d8001345 	stb	zero,77(sp)
   21e64:	05000044 	movi	r20,1
   21e68:	18800017 	ldw	r2,0(r3)
   21e6c:	18c00104 	addi	r3,r3,4
   21e70:	d8c00615 	stw	r3,24(sp)
   21e74:	d8801d05 	stb	r2,116(sp)
   21e78:	05400044 	movi	r21,1
   21e7c:	dc401d04 	addi	r17,sp,116
   21e80:	003dd306 	br	215d0 <___vfprintf_internal_r+0x314>
   21e84:	21003fcc 	andi	r4,r4,255
   21e88:	2004a21e 	bne	r4,zero,23114 <___vfprintf_internal_r+0x1e58>
   21e8c:	00800134 	movhi	r2,4
   21e90:	10a07a04 	addi	r2,r2,-32280
   21e94:	d8800c15 	stw	r2,48(sp)
   21e98:	6080080c 	andi	r2,r12,32
   21e9c:	103fa51e 	bne	r2,zero,21d34 <___vfprintf_internal_r+0xa78>
   21ea0:	d8c00617 	ldw	r3,24(sp)
   21ea4:	6080040c 	andi	r2,r12,16
   21ea8:	1d000017 	ldw	r20,0(r3)
   21eac:	18c00104 	addi	r3,r3,4
   21eb0:	1002301e 	bne	r2,zero,22774 <___vfprintf_internal_r+0x14b8>
   21eb4:	6080100c 	andi	r2,r12,64
   21eb8:	10022e26 	beq	r2,zero,22774 <___vfprintf_internal_r+0x14b8>
   21ebc:	a53fffcc 	andi	r20,r20,65535
   21ec0:	002b883a 	mov	r21,zero
   21ec4:	d8c00615 	stw	r3,24(sp)
   21ec8:	003f9f06 	br	21d48 <___vfprintf_internal_r+0xa8c>
   21ecc:	e2c01990 	cmplti	r11,fp,102
   21ed0:	5800fb1e 	bne	r11,zero,222c0 <___vfprintf_internal_r+0x1004>
   21ed4:	d9000917 	ldw	r4,36(sp)
   21ed8:	d9400a17 	ldw	r5,40(sp)
   21edc:	000d883a 	mov	r6,zero
   21ee0:	000f883a 	mov	r7,zero
   21ee4:	d8c00e15 	stw	r3,56(sp)
   21ee8:	0034d9c0 	call	34d9c <__eqdf2>
   21eec:	d8c00e17 	ldw	r3,56(sp)
   21ef0:	1001891e 	bne	r2,zero,22518 <___vfprintf_internal_r+0x125c>
   21ef4:	d8801b17 	ldw	r2,108(sp)
   21ef8:	01000134 	movhi	r4,4
   21efc:	21208604 	addi	r4,r4,-32232
   21f00:	10800044 	addi	r2,r2,1
   21f04:	18c00044 	addi	r3,r3,1
   21f08:	b1000015 	stw	r4,0(r22)
   21f0c:	01000044 	movi	r4,1
   21f10:	d8801b15 	stw	r2,108(sp)
   21f14:	b1000115 	stw	r4,4(r22)
   21f18:	d8c01c15 	stw	r3,112(sp)
   21f1c:	10800208 	cmpgei	r2,r2,8
   21f20:	10034d1e 	bne	r2,zero,22c58 <___vfprintf_internal_r+0x199c>
   21f24:	b5800204 	addi	r22,r22,8
   21f28:	d8801417 	ldw	r2,80(sp)
   21f2c:	d9000817 	ldw	r4,32(sp)
   21f30:	1102170e 	bge	r2,r4,22790 <___vfprintf_internal_r+0x14d4>
   21f34:	d8800d17 	ldw	r2,52(sp)
   21f38:	d9000b17 	ldw	r4,44(sp)
   21f3c:	b0800015 	stw	r2,0(r22)
   21f40:	d8801b17 	ldw	r2,108(sp)
   21f44:	1907883a 	add	r3,r3,r4
   21f48:	b1000115 	stw	r4,4(r22)
   21f4c:	10800044 	addi	r2,r2,1
   21f50:	d8801b15 	stw	r2,108(sp)
   21f54:	d8c01c15 	stw	r3,112(sp)
   21f58:	10800208 	cmpgei	r2,r2,8
   21f5c:	1002381e 	bne	r2,zero,22840 <___vfprintf_internal_r+0x1584>
   21f60:	b5800204 	addi	r22,r22,8
   21f64:	d8800817 	ldw	r2,32(sp)
   21f68:	157fffc4 	addi	r21,r2,-1
   21f6c:	057dd10e 	bge	zero,r21,216b4 <___vfprintf_internal_r+0x3f8>
   21f70:	01c00134 	movhi	r7,4
   21f74:	a9000450 	cmplti	r4,r21,17
   21f78:	d8801b17 	ldw	r2,108(sp)
   21f7c:	39e08704 	addi	r7,r7,-32228
   21f80:	2003311e 	bne	r4,zero,22c48 <___vfprintf_internal_r+0x198c>
   21f84:	07000404 	movi	fp,16
   21f88:	3823883a 	mov	r17,r7
   21f8c:	00000406 	br	21fa0 <___vfprintf_internal_r+0xce4>
   21f90:	b5800204 	addi	r22,r22,8
   21f94:	ad7ffc04 	addi	r21,r21,-16
   21f98:	a9000448 	cmpgei	r4,r21,17
   21f9c:	20032926 	beq	r4,zero,22c44 <___vfprintf_internal_r+0x1988>
   21fa0:	10800044 	addi	r2,r2,1
   21fa4:	18c00404 	addi	r3,r3,16
   21fa8:	b4400015 	stw	r17,0(r22)
   21fac:	b7000115 	stw	fp,4(r22)
   21fb0:	d8c01c15 	stw	r3,112(sp)
   21fb4:	d8801b15 	stw	r2,108(sp)
   21fb8:	11000208 	cmpgei	r4,r2,8
   21fbc:	203ff426 	beq	r4,zero,21f90 <___vfprintf_internal_r+0xcd4>
   21fc0:	d9801a04 	addi	r6,sp,104
   21fc4:	900b883a 	mov	r5,r18
   21fc8:	9809883a 	mov	r4,r19
   21fcc:	002f1040 	call	2f104 <__sprint_r>
   21fd0:	103dc91e 	bne	r2,zero,216f8 <___vfprintf_internal_r+0x43c>
   21fd4:	d8c01c17 	ldw	r3,112(sp)
   21fd8:	d8801b17 	ldw	r2,108(sp)
   21fdc:	dd802704 	addi	r22,sp,156
   21fe0:	003fec06 	br	21f94 <___vfprintf_internal_r+0xcd8>
   21fe4:	8519c83a 	sub	r12,r16,r20
   21fe8:	033da30e 	bge	zero,r12,21678 <___vfprintf_internal_r+0x3bc>
   21fec:	01c00134 	movhi	r7,4
   21ff0:	61000450 	cmplti	r4,r12,17
   21ff4:	d8801b17 	ldw	r2,108(sp)
   21ff8:	39e08704 	addi	r7,r7,-32228
   21ffc:	2000281e 	bne	r4,zero,220a0 <___vfprintf_internal_r+0xde4>
   22000:	dc400e15 	stw	r17,56(sp)
   22004:	dc000f15 	stw	r16,60(sp)
   22008:	b009883a 	mov	r4,r22
   2200c:	03400404 	movi	r13,16
   22010:	a02d883a 	mov	r22,r20
   22014:	6021883a 	mov	r16,r12
   22018:	4029883a 	mov	r20,r8
   2201c:	3823883a 	mov	r17,r7
   22020:	00000406 	br	22034 <___vfprintf_internal_r+0xd78>
   22024:	843ffc04 	addi	r16,r16,-16
   22028:	81400448 	cmpgei	r5,r16,17
   2202c:	21000204 	addi	r4,r4,8
   22030:	28001426 	beq	r5,zero,22084 <___vfprintf_internal_r+0xdc8>
   22034:	10800044 	addi	r2,r2,1
   22038:	18c00404 	addi	r3,r3,16
   2203c:	24400015 	stw	r17,0(r4)
   22040:	23400115 	stw	r13,4(r4)
   22044:	d8c01c15 	stw	r3,112(sp)
   22048:	d8801b15 	stw	r2,108(sp)
   2204c:	11400208 	cmpgei	r5,r2,8
   22050:	283ff426 	beq	r5,zero,22024 <___vfprintf_internal_r+0xd68>
   22054:	d9801a04 	addi	r6,sp,104
   22058:	900b883a 	mov	r5,r18
   2205c:	9809883a 	mov	r4,r19
   22060:	002f1040 	call	2f104 <__sprint_r>
   22064:	103da41e 	bne	r2,zero,216f8 <___vfprintf_internal_r+0x43c>
   22068:	843ffc04 	addi	r16,r16,-16
   2206c:	81400448 	cmpgei	r5,r16,17
   22070:	d8c01c17 	ldw	r3,112(sp)
   22074:	d8801b17 	ldw	r2,108(sp)
   22078:	d9002704 	addi	r4,sp,156
   2207c:	03400404 	movi	r13,16
   22080:	283fec1e 	bne	r5,zero,22034 <___vfprintf_internal_r+0xd78>
   22084:	8019883a 	mov	r12,r16
   22088:	880f883a 	mov	r7,r17
   2208c:	dc000f17 	ldw	r16,60(sp)
   22090:	dc400e17 	ldw	r17,56(sp)
   22094:	a011883a 	mov	r8,r20
   22098:	b029883a 	mov	r20,r22
   2209c:	202d883a 	mov	r22,r4
   220a0:	10800044 	addi	r2,r2,1
   220a4:	1b07883a 	add	r3,r3,r12
   220a8:	d8801b15 	stw	r2,108(sp)
   220ac:	b1c00015 	stw	r7,0(r22)
   220b0:	b3000115 	stw	r12,4(r22)
   220b4:	d8c01c15 	stw	r3,112(sp)
   220b8:	10800208 	cmpgei	r2,r2,8
   220bc:	1002ee1e 	bne	r2,zero,22c78 <___vfprintf_internal_r+0x19bc>
   220c0:	4551c83a 	sub	r8,r8,r21
   220c4:	b5800204 	addi	r22,r22,8
   220c8:	023d6d0e 	bge	zero,r8,21680 <___vfprintf_internal_r+0x3c4>
   220cc:	01c00134 	movhi	r7,4
   220d0:	41000450 	cmplti	r4,r8,17
   220d4:	d8801b17 	ldw	r2,108(sp)
   220d8:	39e08704 	addi	r7,r7,-32228
   220dc:	2000221e 	bne	r4,zero,22168 <___vfprintf_internal_r+0xeac>
   220e0:	dc400e15 	stw	r17,56(sp)
   220e4:	dc000f15 	stw	r16,60(sp)
   220e8:	03000404 	movi	r12,16
   220ec:	4021883a 	mov	r16,r8
   220f0:	3823883a 	mov	r17,r7
   220f4:	00000406 	br	22108 <___vfprintf_internal_r+0xe4c>
   220f8:	843ffc04 	addi	r16,r16,-16
   220fc:	81000448 	cmpgei	r4,r16,17
   22100:	b5800204 	addi	r22,r22,8
   22104:	20001426 	beq	r4,zero,22158 <___vfprintf_internal_r+0xe9c>
   22108:	10800044 	addi	r2,r2,1
   2210c:	18c00404 	addi	r3,r3,16
   22110:	b4400015 	stw	r17,0(r22)
   22114:	b3000115 	stw	r12,4(r22)
   22118:	d8c01c15 	stw	r3,112(sp)
   2211c:	d8801b15 	stw	r2,108(sp)
   22120:	11000208 	cmpgei	r4,r2,8
   22124:	203ff426 	beq	r4,zero,220f8 <___vfprintf_internal_r+0xe3c>
   22128:	d9801a04 	addi	r6,sp,104
   2212c:	900b883a 	mov	r5,r18
   22130:	9809883a 	mov	r4,r19
   22134:	002f1040 	call	2f104 <__sprint_r>
   22138:	103d6f1e 	bne	r2,zero,216f8 <___vfprintf_internal_r+0x43c>
   2213c:	843ffc04 	addi	r16,r16,-16
   22140:	81000448 	cmpgei	r4,r16,17
   22144:	d8c01c17 	ldw	r3,112(sp)
   22148:	d8801b17 	ldw	r2,108(sp)
   2214c:	dd802704 	addi	r22,sp,156
   22150:	03000404 	movi	r12,16
   22154:	203fec1e 	bne	r4,zero,22108 <___vfprintf_internal_r+0xe4c>
   22158:	8011883a 	mov	r8,r16
   2215c:	880f883a 	mov	r7,r17
   22160:	dc000f17 	ldw	r16,60(sp)
   22164:	dc400e17 	ldw	r17,56(sp)
   22168:	10800044 	addi	r2,r2,1
   2216c:	1a07883a 	add	r3,r3,r8
   22170:	d8801b15 	stw	r2,108(sp)
   22174:	b1c00015 	stw	r7,0(r22)
   22178:	b2000115 	stw	r8,4(r22)
   2217c:	d8c01c15 	stw	r3,112(sp)
   22180:	10800208 	cmpgei	r2,r2,8
   22184:	1001731e 	bne	r2,zero,22754 <___vfprintf_internal_r+0x1498>
   22188:	b5800204 	addi	r22,r22,8
   2218c:	003d3c06 	br	21680 <___vfprintf_internal_r+0x3c4>
   22190:	10c00060 	cmpeqi	r3,r2,1
   22194:	1803861e 	bne	r3,zero,22fb0 <___vfprintf_internal_r+0x1cf4>
   22198:	108000a0 	cmpeqi	r2,r2,2
   2219c:	db000417 	ldw	r12,16(sp)
   221a0:	103ea326 	beq	r2,zero,21c30 <___vfprintf_internal_r+0x974>
   221a4:	d9000c17 	ldw	r4,48(sp)
   221a8:	dc402704 	addi	r17,sp,156
   221ac:	a08003cc 	andi	r2,r20,15
   221b0:	a806973a 	slli	r3,r21,28
   221b4:	a028d13a 	srli	r20,r20,4
   221b8:	2085883a 	add	r2,r4,r2
   221bc:	10800003 	ldbu	r2,0(r2)
   221c0:	a82ad13a 	srli	r21,r21,4
   221c4:	1d28b03a 	or	r20,r3,r20
   221c8:	88bfffc5 	stb	r2,-1(r17)
   221cc:	a544b03a 	or	r2,r20,r21
   221d0:	8c7fffc4 	addi	r17,r17,-1
   221d4:	103ff51e 	bne	r2,zero,221ac <___vfprintf_internal_r+0xef0>
   221d8:	d8802704 	addi	r2,sp,156
   221dc:	146bc83a 	sub	r21,r2,r17
   221e0:	db000415 	stw	r12,16(sp)
   221e4:	003e4c06 	br	21b18 <___vfprintf_internal_r+0x85c>
   221e8:	d9801a04 	addi	r6,sp,104
   221ec:	900b883a 	mov	r5,r18
   221f0:	9809883a 	mov	r4,r19
   221f4:	002f1040 	call	2f104 <__sprint_r>
   221f8:	103d3926 	beq	r2,zero,216e0 <___vfprintf_internal_r+0x424>
   221fc:	003d3e06 	br	216f8 <___vfprintf_internal_r+0x43c>
   22200:	d8801b17 	ldw	r2,108(sp)
   22204:	01000134 	movhi	r4,4
   22208:	21208604 	addi	r4,r4,-32232
   2220c:	10800044 	addi	r2,r2,1
   22210:	18c00044 	addi	r3,r3,1
   22214:	b1000015 	stw	r4,0(r22)
   22218:	01000044 	movi	r4,1
   2221c:	d8801b15 	stw	r2,108(sp)
   22220:	b1000115 	stw	r4,4(r22)
   22224:	d8c01c15 	stw	r3,112(sp)
   22228:	10800208 	cmpgei	r2,r2,8
   2222c:	1003241e 	bne	r2,zero,22ec0 <___vfprintf_internal_r+0x1c04>
   22230:	b5800204 	addi	r22,r22,8
   22234:	a802a81e 	bne	r21,zero,22cd8 <___vfprintf_internal_r+0x1a1c>
   22238:	d8800417 	ldw	r2,16(sp)
   2223c:	d9000817 	ldw	r4,32(sp)
   22240:	1080004c 	andi	r2,r2,1
   22244:	1104b03a 	or	r2,r2,r4
   22248:	103d1a26 	beq	r2,zero,216b4 <___vfprintf_internal_r+0x3f8>
   2224c:	d8800d17 	ldw	r2,52(sp)
   22250:	d9000b17 	ldw	r4,44(sp)
   22254:	b0800015 	stw	r2,0(r22)
   22258:	d8801b17 	ldw	r2,108(sp)
   2225c:	20c7883a 	add	r3,r4,r3
   22260:	b1000115 	stw	r4,4(r22)
   22264:	10800044 	addi	r2,r2,1
   22268:	d8c01c15 	stw	r3,112(sp)
   2226c:	d8801b15 	stw	r2,108(sp)
   22270:	11000208 	cmpgei	r4,r2,8
   22274:	20033b1e 	bne	r4,zero,22f64 <___vfprintf_internal_r+0x1ca8>
   22278:	b5800204 	addi	r22,r22,8
   2227c:	d9000817 	ldw	r4,32(sp)
   22280:	10800044 	addi	r2,r2,1
   22284:	d8801b15 	stw	r2,108(sp)
   22288:	20c7883a 	add	r3,r4,r3
   2228c:	b4400015 	stw	r17,0(r22)
   22290:	b1000115 	stw	r4,4(r22)
   22294:	d8c01c15 	stw	r3,112(sp)
   22298:	10800208 	cmpgei	r2,r2,8
   2229c:	103d0426 	beq	r2,zero,216b0 <___vfprintf_internal_r+0x3f4>
   222a0:	d9801a04 	addi	r6,sp,104
   222a4:	900b883a 	mov	r5,r18
   222a8:	9809883a 	mov	r4,r19
   222ac:	002f1040 	call	2f104 <__sprint_r>
   222b0:	103d111e 	bne	r2,zero,216f8 <___vfprintf_internal_r+0x43c>
   222b4:	d8c01c17 	ldw	r3,112(sp)
   222b8:	dd802704 	addi	r22,sp,156
   222bc:	003cfd06 	br	216b4 <___vfprintf_internal_r+0x3f8>
   222c0:	d8800817 	ldw	r2,32(sp)
   222c4:	dd401b17 	ldw	r21,108(sp)
   222c8:	18c00044 	addi	r3,r3,1
   222cc:	10800088 	cmpgei	r2,r2,2
   222d0:	ad400044 	addi	r21,r21,1
   222d4:	b7000204 	addi	fp,r22,8
   222d8:	1000e826 	beq	r2,zero,2267c <___vfprintf_internal_r+0x13c0>
   222dc:	00800044 	movi	r2,1
   222e0:	b0800115 	stw	r2,4(r22)
   222e4:	b4400015 	stw	r17,0(r22)
   222e8:	d8c01c15 	stw	r3,112(sp)
   222ec:	dd401b15 	stw	r21,108(sp)
   222f0:	a8800210 	cmplti	r2,r21,8
   222f4:	1001ae26 	beq	r2,zero,229b0 <___vfprintf_internal_r+0x16f4>
   222f8:	d8800b17 	ldw	r2,44(sp)
   222fc:	d9000d17 	ldw	r4,52(sp)
   22300:	ad400044 	addi	r21,r21,1
   22304:	1887883a 	add	r3,r3,r2
   22308:	e0800115 	stw	r2,4(fp)
   2230c:	e1000015 	stw	r4,0(fp)
   22310:	d8c01c15 	stw	r3,112(sp)
   22314:	dd401b15 	stw	r21,108(sp)
   22318:	a8800208 	cmpgei	r2,r21,8
   2231c:	1001ad1e 	bne	r2,zero,229d4 <___vfprintf_internal_r+0x1718>
   22320:	e7000204 	addi	fp,fp,8
   22324:	d9000917 	ldw	r4,36(sp)
   22328:	d9400a17 	ldw	r5,40(sp)
   2232c:	000d883a 	mov	r6,zero
   22330:	000f883a 	mov	r7,zero
   22334:	d8c00715 	stw	r3,28(sp)
   22338:	0034d9c0 	call	34d9c <__eqdf2>
   2233c:	d8c00817 	ldw	r3,32(sp)
   22340:	1dbfffc4 	addi	r22,r3,-1
   22344:	d8c00717 	ldw	r3,28(sp)
   22348:	1000e426 	beq	r2,zero,226dc <___vfprintf_internal_r+0x1420>
   2234c:	8a400044 	addi	r9,r17,1
   22350:	ad400044 	addi	r21,r21,1
   22354:	1d87883a 	add	r3,r3,r22
   22358:	e2400015 	stw	r9,0(fp)
   2235c:	e5800115 	stw	r22,4(fp)
   22360:	d8c01c15 	stw	r3,112(sp)
   22364:	dd401b15 	stw	r21,108(sp)
   22368:	a8800208 	cmpgei	r2,r21,8
   2236c:	1000cd1e 	bne	r2,zero,226a4 <___vfprintf_internal_r+0x13e8>
   22370:	e7000204 	addi	fp,fp,8
   22374:	d9001017 	ldw	r4,64(sp)
   22378:	ad400044 	addi	r21,r21,1
   2237c:	d8801644 	addi	r2,sp,89
   22380:	20c7883a 	add	r3,r4,r3
   22384:	dd401b15 	stw	r21,108(sp)
   22388:	e0800015 	stw	r2,0(fp)
   2238c:	e1000115 	stw	r4,4(fp)
   22390:	d8c01c15 	stw	r3,112(sp)
   22394:	ad400208 	cmpgei	r21,r21,8
   22398:	a83fc11e 	bne	r21,zero,222a0 <___vfprintf_internal_r+0xfe4>
   2239c:	e5800204 	addi	r22,fp,8
   223a0:	003cc406 	br	216b4 <___vfprintf_internal_r+0x3f8>
   223a4:	db000417 	ldw	r12,16(sp)
   223a8:	003e1d06 	br	21c20 <___vfprintf_internal_r+0x964>
   223ac:	03000134 	movhi	r12,4
   223b0:	39000450 	cmplti	r4,r7,17
   223b4:	d8801b17 	ldw	r2,108(sp)
   223b8:	63208b04 	addi	r12,r12,-32212
   223bc:	2000321e 	bne	r4,zero,22488 <___vfprintf_internal_r+0x11cc>
   223c0:	dc401115 	stw	r17,68(sp)
   223c4:	b009883a 	mov	r4,r22
   223c8:	9023883a 	mov	r17,r18
   223cc:	a82d883a 	mov	r22,r21
   223d0:	ddc01215 	stw	r23,72(sp)
   223d4:	03c00404 	movi	r15,16
   223d8:	a02f883a 	mov	r23,r20
   223dc:	db800e15 	stw	r14,56(sp)
   223e0:	8029883a 	mov	r20,r16
   223e4:	db400f15 	stw	r13,60(sp)
   223e8:	402b883a 	mov	r21,r8
   223ec:	3821883a 	mov	r16,r7
   223f0:	6025883a 	mov	r18,r12
   223f4:	00000406 	br	22408 <___vfprintf_internal_r+0x114c>
   223f8:	843ffc04 	addi	r16,r16,-16
   223fc:	81800448 	cmpgei	r6,r16,17
   22400:	21000204 	addi	r4,r4,8
   22404:	30001426 	beq	r6,zero,22458 <___vfprintf_internal_r+0x119c>
   22408:	10800044 	addi	r2,r2,1
   2240c:	18c00404 	addi	r3,r3,16
   22410:	24800015 	stw	r18,0(r4)
   22414:	23c00115 	stw	r15,4(r4)
   22418:	d8c01c15 	stw	r3,112(sp)
   2241c:	d8801b15 	stw	r2,108(sp)
   22420:	11800208 	cmpgei	r6,r2,8
   22424:	303ff426 	beq	r6,zero,223f8 <___vfprintf_internal_r+0x113c>
   22428:	d9801a04 	addi	r6,sp,104
   2242c:	880b883a 	mov	r5,r17
   22430:	9809883a 	mov	r4,r19
   22434:	002f1040 	call	2f104 <__sprint_r>
   22438:	10017d1e 	bne	r2,zero,22a30 <___vfprintf_internal_r+0x1774>
   2243c:	843ffc04 	addi	r16,r16,-16
   22440:	81800448 	cmpgei	r6,r16,17
   22444:	d8c01c17 	ldw	r3,112(sp)
   22448:	d8801b17 	ldw	r2,108(sp)
   2244c:	d9002704 	addi	r4,sp,156
   22450:	03c00404 	movi	r15,16
   22454:	303fec1e 	bne	r6,zero,22408 <___vfprintf_internal_r+0x114c>
   22458:	800f883a 	mov	r7,r16
   2245c:	9019883a 	mov	r12,r18
   22460:	a021883a 	mov	r16,r20
   22464:	8825883a 	mov	r18,r17
   22468:	b829883a 	mov	r20,r23
   2246c:	db800e17 	ldw	r14,56(sp)
   22470:	db400f17 	ldw	r13,60(sp)
   22474:	ddc01217 	ldw	r23,72(sp)
   22478:	dc401117 	ldw	r17,68(sp)
   2247c:	a811883a 	mov	r8,r21
   22480:	b02b883a 	mov	r21,r22
   22484:	202d883a 	mov	r22,r4
   22488:	10800044 	addi	r2,r2,1
   2248c:	19c7883a 	add	r3,r3,r7
   22490:	d8801b15 	stw	r2,108(sp)
   22494:	b3000015 	stw	r12,0(r22)
   22498:	b1c00115 	stw	r7,4(r22)
   2249c:	d8c01c15 	stw	r3,112(sp)
   224a0:	10800208 	cmpgei	r2,r2,8
   224a4:	1001541e 	bne	r2,zero,229f8 <___vfprintf_internal_r+0x173c>
   224a8:	b5800204 	addi	r22,r22,8
   224ac:	003c5506 	br	21604 <___vfprintf_internal_r+0x348>
   224b0:	d9801a04 	addi	r6,sp,104
   224b4:	900b883a 	mov	r5,r18
   224b8:	9809883a 	mov	r4,r19
   224bc:	da001115 	stw	r8,68(sp)
   224c0:	db400f15 	stw	r13,60(sp)
   224c4:	db800e15 	stw	r14,56(sp)
   224c8:	002f1040 	call	2f104 <__sprint_r>
   224cc:	103c8a1e 	bne	r2,zero,216f8 <___vfprintf_internal_r+0x43c>
   224d0:	d8c01c17 	ldw	r3,112(sp)
   224d4:	da001117 	ldw	r8,68(sp)
   224d8:	db400f17 	ldw	r13,60(sp)
   224dc:	db800e17 	ldw	r14,56(sp)
   224e0:	dd802704 	addi	r22,sp,156
   224e4:	003c5506 	br	2163c <___vfprintf_internal_r+0x380>
   224e8:	d9801a04 	addi	r6,sp,104
   224ec:	900b883a 	mov	r5,r18
   224f0:	9809883a 	mov	r4,r19
   224f4:	da000f15 	stw	r8,60(sp)
   224f8:	db400e15 	stw	r13,56(sp)
   224fc:	002f1040 	call	2f104 <__sprint_r>
   22500:	103c7d1e 	bne	r2,zero,216f8 <___vfprintf_internal_r+0x43c>
   22504:	d8c01c17 	ldw	r3,112(sp)
   22508:	da000f17 	ldw	r8,60(sp)
   2250c:	db400e17 	ldw	r13,56(sp)
   22510:	dd802704 	addi	r22,sp,156
   22514:	003c5606 	br	21670 <___vfprintf_internal_r+0x3b4>
   22518:	dd401417 	ldw	r21,80(sp)
   2251c:	057f380e 	bge	zero,r21,22200 <___vfprintf_internal_r+0xf44>
   22520:	d8800817 	ldw	r2,32(sp)
   22524:	d9000717 	ldw	r4,28(sp)
   22528:	102b883a 	mov	r21,r2
   2252c:	2080b516 	blt	r4,r2,22804 <___vfprintf_internal_r+0x1548>
   22530:	05400a0e 	bge	zero,r21,2255c <___vfprintf_internal_r+0x12a0>
   22534:	d8801b17 	ldw	r2,108(sp)
   22538:	1d47883a 	add	r3,r3,r21
   2253c:	b4400015 	stw	r17,0(r22)
   22540:	10800044 	addi	r2,r2,1
   22544:	d8801b15 	stw	r2,108(sp)
   22548:	b5400115 	stw	r21,4(r22)
   2254c:	d8c01c15 	stw	r3,112(sp)
   22550:	10800208 	cmpgei	r2,r2,8
   22554:	1002d31e 	bne	r2,zero,230a4 <___vfprintf_internal_r+0x1de8>
   22558:	b5800204 	addi	r22,r22,8
   2255c:	a800b616 	blt	r21,zero,22838 <___vfprintf_internal_r+0x157c>
   22560:	d8800717 	ldw	r2,28(sp)
   22564:	156bc83a 	sub	r21,r2,r21
   22568:	0540c516 	blt	zero,r21,22880 <___vfprintf_internal_r+0x15c4>
   2256c:	dd401417 	ldw	r21,80(sp)
   22570:	d8800817 	ldw	r2,32(sp)
   22574:	a880a60e 	bge	r21,r2,22810 <___vfprintf_internal_r+0x1554>
   22578:	d8800d17 	ldw	r2,52(sp)
   2257c:	d9000b17 	ldw	r4,44(sp)
   22580:	b0800015 	stw	r2,0(r22)
   22584:	d8801b17 	ldw	r2,108(sp)
   22588:	1907883a 	add	r3,r3,r4
   2258c:	b1000115 	stw	r4,4(r22)
   22590:	10800044 	addi	r2,r2,1
   22594:	d8801b15 	stw	r2,108(sp)
   22598:	d8c01c15 	stw	r3,112(sp)
   2259c:	10800208 	cmpgei	r2,r2,8
   225a0:	1002ab1e 	bne	r2,zero,23050 <___vfprintf_internal_r+0x1d94>
   225a4:	b5800204 	addi	r22,r22,8
   225a8:	d8800817 	ldw	r2,32(sp)
   225ac:	d9000717 	ldw	r4,28(sp)
   225b0:	156bc83a 	sub	r21,r2,r21
   225b4:	1139c83a 	sub	fp,r2,r4
   225b8:	af00010e 	bge	r21,fp,225c0 <___vfprintf_internal_r+0x1304>
   225bc:	a839883a 	mov	fp,r21
   225c0:	07000c0e 	bge	zero,fp,225f4 <___vfprintf_internal_r+0x1338>
   225c4:	d8800717 	ldw	r2,28(sp)
   225c8:	1f07883a 	add	r3,r3,fp
   225cc:	b7000115 	stw	fp,4(r22)
   225d0:	8893883a 	add	r9,r17,r2
   225d4:	d8801b17 	ldw	r2,108(sp)
   225d8:	b2400015 	stw	r9,0(r22)
   225dc:	d8c01c15 	stw	r3,112(sp)
   225e0:	10800044 	addi	r2,r2,1
   225e4:	d8801b15 	stw	r2,108(sp)
   225e8:	10800208 	cmpgei	r2,r2,8
   225ec:	1002b81e 	bne	r2,zero,230d0 <___vfprintf_internal_r+0x1e14>
   225f0:	b5800204 	addi	r22,r22,8
   225f4:	e005883a 	mov	r2,fp
   225f8:	e000010e 	bge	fp,zero,22600 <___vfprintf_internal_r+0x1344>
   225fc:	0005883a 	mov	r2,zero
   22600:	a8abc83a 	sub	r21,r21,r2
   22604:	057c2b0e 	bge	zero,r21,216b4 <___vfprintf_internal_r+0x3f8>
   22608:	01c00134 	movhi	r7,4
   2260c:	a9000450 	cmplti	r4,r21,17
   22610:	d8801b17 	ldw	r2,108(sp)
   22614:	39e08704 	addi	r7,r7,-32228
   22618:	20018b1e 	bne	r4,zero,22c48 <___vfprintf_internal_r+0x198c>
   2261c:	07000404 	movi	fp,16
   22620:	3823883a 	mov	r17,r7
   22624:	00000406 	br	22638 <___vfprintf_internal_r+0x137c>
   22628:	b5800204 	addi	r22,r22,8
   2262c:	ad7ffc04 	addi	r21,r21,-16
   22630:	a9000448 	cmpgei	r4,r21,17
   22634:	20018326 	beq	r4,zero,22c44 <___vfprintf_internal_r+0x1988>
   22638:	10800044 	addi	r2,r2,1
   2263c:	18c00404 	addi	r3,r3,16
   22640:	b4400015 	stw	r17,0(r22)
   22644:	b7000115 	stw	fp,4(r22)
   22648:	d8c01c15 	stw	r3,112(sp)
   2264c:	d8801b15 	stw	r2,108(sp)
   22650:	11000208 	cmpgei	r4,r2,8
   22654:	203ff426 	beq	r4,zero,22628 <___vfprintf_internal_r+0x136c>
   22658:	d9801a04 	addi	r6,sp,104
   2265c:	900b883a 	mov	r5,r18
   22660:	9809883a 	mov	r4,r19
   22664:	002f1040 	call	2f104 <__sprint_r>
   22668:	103c231e 	bne	r2,zero,216f8 <___vfprintf_internal_r+0x43c>
   2266c:	d8c01c17 	ldw	r3,112(sp)
   22670:	d8801b17 	ldw	r2,108(sp)
   22674:	dd802704 	addi	r22,sp,156
   22678:	003fec06 	br	2262c <___vfprintf_internal_r+0x1370>
   2267c:	d8800417 	ldw	r2,16(sp)
   22680:	1080004c 	andi	r2,r2,1
   22684:	103f151e 	bne	r2,zero,222dc <___vfprintf_internal_r+0x1020>
   22688:	00800044 	movi	r2,1
   2268c:	b0800115 	stw	r2,4(r22)
   22690:	b4400015 	stw	r17,0(r22)
   22694:	d8c01c15 	stw	r3,112(sp)
   22698:	dd401b15 	stw	r21,108(sp)
   2269c:	a8800210 	cmplti	r2,r21,8
   226a0:	103f341e 	bne	r2,zero,22374 <___vfprintf_internal_r+0x10b8>
   226a4:	d9801a04 	addi	r6,sp,104
   226a8:	900b883a 	mov	r5,r18
   226ac:	9809883a 	mov	r4,r19
   226b0:	002f1040 	call	2f104 <__sprint_r>
   226b4:	103c101e 	bne	r2,zero,216f8 <___vfprintf_internal_r+0x43c>
   226b8:	d8c01c17 	ldw	r3,112(sp)
   226bc:	dd401b17 	ldw	r21,108(sp)
   226c0:	df002704 	addi	fp,sp,156
   226c4:	003f2b06 	br	22374 <___vfprintf_internal_r+0x10b8>
   226c8:	4002391e 	bne	r8,zero,22fb0 <___vfprintf_internal_r+0x1cf4>
   226cc:	0011883a 	mov	r8,zero
   226d0:	002b883a 	mov	r21,zero
   226d4:	dc402704 	addi	r17,sp,156
   226d8:	003d0f06 	br	21b18 <___vfprintf_internal_r+0x85c>
   226dc:	05bf250e 	bge	zero,r22,22374 <___vfprintf_internal_r+0x10b8>
   226e0:	01c00134 	movhi	r7,4
   226e4:	b0800450 	cmplti	r2,r22,17
   226e8:	39e08704 	addi	r7,r7,-32228
   226ec:	1001761e 	bne	r2,zero,22cc8 <___vfprintf_internal_r+0x1a0c>
   226f0:	dc000715 	stw	r16,28(sp)
   226f4:	04400404 	movi	r17,16
   226f8:	3821883a 	mov	r16,r7
   226fc:	00000406 	br	22710 <___vfprintf_internal_r+0x1454>
   22700:	e7000204 	addi	fp,fp,8
   22704:	b5bffc04 	addi	r22,r22,-16
   22708:	b0800448 	cmpgei	r2,r22,17
   2270c:	10016c26 	beq	r2,zero,22cc0 <___vfprintf_internal_r+0x1a04>
   22710:	ad400044 	addi	r21,r21,1
   22714:	18c00404 	addi	r3,r3,16
   22718:	e4000015 	stw	r16,0(fp)
   2271c:	e4400115 	stw	r17,4(fp)
   22720:	d8c01c15 	stw	r3,112(sp)
   22724:	dd401b15 	stw	r21,108(sp)
   22728:	a8800208 	cmpgei	r2,r21,8
   2272c:	103ff426 	beq	r2,zero,22700 <___vfprintf_internal_r+0x1444>
   22730:	d9801a04 	addi	r6,sp,104
   22734:	900b883a 	mov	r5,r18
   22738:	9809883a 	mov	r4,r19
   2273c:	002f1040 	call	2f104 <__sprint_r>
   22740:	103bed1e 	bne	r2,zero,216f8 <___vfprintf_internal_r+0x43c>
   22744:	d8c01c17 	ldw	r3,112(sp)
   22748:	dd401b17 	ldw	r21,108(sp)
   2274c:	df002704 	addi	fp,sp,156
   22750:	003fec06 	br	22704 <___vfprintf_internal_r+0x1448>
   22754:	d9801a04 	addi	r6,sp,104
   22758:	900b883a 	mov	r5,r18
   2275c:	9809883a 	mov	r4,r19
   22760:	002f1040 	call	2f104 <__sprint_r>
   22764:	103be41e 	bne	r2,zero,216f8 <___vfprintf_internal_r+0x43c>
   22768:	d8c01c17 	ldw	r3,112(sp)
   2276c:	dd802704 	addi	r22,sp,156
   22770:	003bc306 	br	21680 <___vfprintf_internal_r+0x3c4>
   22774:	002b883a 	mov	r21,zero
   22778:	d8c00615 	stw	r3,24(sp)
   2277c:	003d7206 	br	21d48 <___vfprintf_internal_r+0xa8c>
   22780:	a02bd7fa 	srai	r21,r20,31
   22784:	d8c00615 	stw	r3,24(sp)
   22788:	a805883a 	mov	r2,r21
   2278c:	003cd006 	br	21ad0 <___vfprintf_internal_r+0x814>
   22790:	d8800417 	ldw	r2,16(sp)
   22794:	1080004c 	andi	r2,r2,1
   22798:	103bc626 	beq	r2,zero,216b4 <___vfprintf_internal_r+0x3f8>
   2279c:	003de506 	br	21f34 <___vfprintf_internal_r+0xc78>
   227a0:	63000414 	ori	r12,r12,16
   227a4:	003b1106 	br	213ec <___vfprintf_internal_r+0x130>
   227a8:	bac00007 	ldb	r11,0(r23)
   227ac:	d8800615 	stw	r2,24(sp)
   227b0:	003b0e06 	br	213ec <___vfprintf_internal_r+0x130>
   227b4:	dc402704 	addi	r17,sp,156
   227b8:	003cd706 	br	21b18 <___vfprintf_internal_r+0x85c>
   227bc:	18800017 	ldw	r2,0(r3)
   227c0:	d8800915 	stw	r2,36(sp)
   227c4:	18800117 	ldw	r2,4(r3)
   227c8:	d8800a15 	stw	r2,40(sp)
   227cc:	003c3d06 	br	218c4 <___vfprintf_internal_r+0x608>
   227d0:	00800c04 	movi	r2,48
   227d4:	d8801385 	stb	r2,78(sp)
   227d8:	df0013c5 	stb	fp,79(sp)
   227dc:	63000094 	ori	r12,r12,2
   227e0:	00800084 	movi	r2,2
   227e4:	003c0106 	br	217ec <___vfprintf_internal_r+0x530>
   227e8:	d9400517 	ldw	r5,20(sp)
   227ec:	20800017 	ldw	r2,0(r4)
   227f0:	d8c00615 	stw	r3,24(sp)
   227f4:	2809d7fa 	srai	r4,r5,31
   227f8:	11400015 	stw	r5,0(r2)
   227fc:	11000115 	stw	r4,4(r2)
   22800:	003ae206 	br	2138c <___vfprintf_internal_r+0xd0>
   22804:	202b883a 	mov	r21,r4
   22808:	057f4a16 	blt	zero,r21,22534 <___vfprintf_internal_r+0x1278>
   2280c:	003f5306 	br	2255c <___vfprintf_internal_r+0x12a0>
   22810:	d8800417 	ldw	r2,16(sp)
   22814:	1080004c 	andi	r2,r2,1
   22818:	103f571e 	bne	r2,zero,22578 <___vfprintf_internal_r+0x12bc>
   2281c:	d8800817 	ldw	r2,32(sp)
   22820:	d9000717 	ldw	r4,28(sp)
   22824:	156bc83a 	sub	r21,r2,r21
   22828:	1139c83a 	sub	fp,r2,r4
   2282c:	af3f710e 	bge	r21,fp,225f4 <___vfprintf_internal_r+0x1338>
   22830:	a839883a 	mov	fp,r21
   22834:	003f6f06 	br	225f4 <___vfprintf_internal_r+0x1338>
   22838:	002b883a 	mov	r21,zero
   2283c:	003f4806 	br	22560 <___vfprintf_internal_r+0x12a4>
   22840:	d9801a04 	addi	r6,sp,104
   22844:	900b883a 	mov	r5,r18
   22848:	9809883a 	mov	r4,r19
   2284c:	002f1040 	call	2f104 <__sprint_r>
   22850:	103ba91e 	bne	r2,zero,216f8 <___vfprintf_internal_r+0x43c>
   22854:	d8c01c17 	ldw	r3,112(sp)
   22858:	dd802704 	addi	r22,sp,156
   2285c:	003dc106 	br	21f64 <___vfprintf_internal_r+0xca8>
   22860:	408001f0 	cmpltui	r2,r8,7
   22864:	402b883a 	mov	r21,r8
   22868:	1001a226 	beq	r2,zero,22ef4 <___vfprintf_internal_r+0x1c38>
   2286c:	04400134 	movhi	r17,4
   22870:	a829883a 	mov	r20,r21
   22874:	d8c00615 	stw	r3,24(sp)
   22878:	8c608404 	addi	r17,r17,-32240
   2287c:	003b5406 	br	215d0 <___vfprintf_internal_r+0x314>
   22880:	01c00134 	movhi	r7,4
   22884:	a9000450 	cmplti	r4,r21,17
   22888:	d8801b17 	ldw	r2,108(sp)
   2288c:	39e08704 	addi	r7,r7,-32228
   22890:	20017d1e 	bne	r4,zero,22e88 <___vfprintf_internal_r+0x1bcc>
   22894:	dc000e15 	stw	r16,56(sp)
   22898:	07000404 	movi	fp,16
   2289c:	3821883a 	mov	r16,r7
   228a0:	00000406 	br	228b4 <___vfprintf_internal_r+0x15f8>
   228a4:	b5800204 	addi	r22,r22,8
   228a8:	ad7ffc04 	addi	r21,r21,-16
   228ac:	a9000448 	cmpgei	r4,r21,17
   228b0:	20017326 	beq	r4,zero,22e80 <___vfprintf_internal_r+0x1bc4>
   228b4:	10800044 	addi	r2,r2,1
   228b8:	18c00404 	addi	r3,r3,16
   228bc:	b4000015 	stw	r16,0(r22)
   228c0:	b7000115 	stw	fp,4(r22)
   228c4:	d8c01c15 	stw	r3,112(sp)
   228c8:	d8801b15 	stw	r2,108(sp)
   228cc:	11000208 	cmpgei	r4,r2,8
   228d0:	203ff426 	beq	r4,zero,228a4 <___vfprintf_internal_r+0x15e8>
   228d4:	d9801a04 	addi	r6,sp,104
   228d8:	900b883a 	mov	r5,r18
   228dc:	9809883a 	mov	r4,r19
   228e0:	002f1040 	call	2f104 <__sprint_r>
   228e4:	103b841e 	bne	r2,zero,216f8 <___vfprintf_internal_r+0x43c>
   228e8:	d8c01c17 	ldw	r3,112(sp)
   228ec:	d8801b17 	ldw	r2,108(sp)
   228f0:	dd802704 	addi	r22,sp,156
   228f4:	003fec06 	br	228a8 <___vfprintf_internal_r+0x15ec>
   228f8:	dc402704 	addi	r17,sp,156
   228fc:	a805883a 	mov	r2,r21
   22900:	dc000715 	stw	r16,28(sp)
   22904:	902b883a 	mov	r21,r18
   22908:	8821883a 	mov	r16,r17
   2290c:	db000415 	stw	r12,16(sp)
   22910:	a023883a 	mov	r17,r20
   22914:	da000e15 	stw	r8,56(sp)
   22918:	9829883a 	mov	r20,r19
   2291c:	1025883a 	mov	r18,r2
   22920:	6827883a 	mov	r19,r13
   22924:	8809883a 	mov	r4,r17
   22928:	900b883a 	mov	r5,r18
   2292c:	01800284 	movi	r6,10
   22930:	000f883a 	mov	r7,zero
   22934:	00335200 	call	33520 <__umoddi3>
   22938:	10800c04 	addi	r2,r2,48
   2293c:	8809883a 	mov	r4,r17
   22940:	900b883a 	mov	r5,r18
   22944:	01800284 	movi	r6,10
   22948:	000f883a 	mov	r7,zero
   2294c:	80bfffc5 	stb	r2,-1(r16)
   22950:	00208c80 	call	208c8 <__udivdi3>
   22954:	900d883a 	mov	r6,r18
   22958:	880f883a 	mov	r7,r17
   2295c:	843fffc4 	addi	r16,r16,-1
   22960:	1023883a 	mov	r17,r2
   22964:	1825883a 	mov	r18,r3
   22968:	303fee1e 	bne	r6,zero,22924 <___vfprintf_internal_r+0x1668>
   2296c:	39c002a8 	cmpgeui	r7,r7,10
   22970:	383fec1e 	bne	r7,zero,22924 <___vfprintf_internal_r+0x1668>
   22974:	8023883a 	mov	r17,r16
   22978:	d8802704 	addi	r2,sp,156
   2297c:	981b883a 	mov	r13,r19
   22980:	a825883a 	mov	r18,r21
   22984:	dc000717 	ldw	r16,28(sp)
   22988:	da000e17 	ldw	r8,56(sp)
   2298c:	a027883a 	mov	r19,r20
   22990:	146bc83a 	sub	r21,r2,r17
   22994:	003c6006 	br	21b18 <___vfprintf_internal_r+0x85c>
   22998:	d8800617 	ldw	r2,24(sp)
   2299c:	10800017 	ldw	r2,0(r2)
   229a0:	d8c00615 	stw	r3,24(sp)
   229a4:	d8c00517 	ldw	r3,20(sp)
   229a8:	10c00015 	stw	r3,0(r2)
   229ac:	003a7706 	br	2138c <___vfprintf_internal_r+0xd0>
   229b0:	d9801a04 	addi	r6,sp,104
   229b4:	900b883a 	mov	r5,r18
   229b8:	9809883a 	mov	r4,r19
   229bc:	002f1040 	call	2f104 <__sprint_r>
   229c0:	103b4d1e 	bne	r2,zero,216f8 <___vfprintf_internal_r+0x43c>
   229c4:	d8c01c17 	ldw	r3,112(sp)
   229c8:	dd401b17 	ldw	r21,108(sp)
   229cc:	df002704 	addi	fp,sp,156
   229d0:	003e4906 	br	222f8 <___vfprintf_internal_r+0x103c>
   229d4:	d9801a04 	addi	r6,sp,104
   229d8:	900b883a 	mov	r5,r18
   229dc:	9809883a 	mov	r4,r19
   229e0:	002f1040 	call	2f104 <__sprint_r>
   229e4:	103b441e 	bne	r2,zero,216f8 <___vfprintf_internal_r+0x43c>
   229e8:	d8c01c17 	ldw	r3,112(sp)
   229ec:	dd401b17 	ldw	r21,108(sp)
   229f0:	df002704 	addi	fp,sp,156
   229f4:	003e4b06 	br	22324 <___vfprintf_internal_r+0x1068>
   229f8:	d9801a04 	addi	r6,sp,104
   229fc:	900b883a 	mov	r5,r18
   22a00:	9809883a 	mov	r4,r19
   22a04:	da001115 	stw	r8,68(sp)
   22a08:	db400f15 	stw	r13,60(sp)
   22a0c:	db800e15 	stw	r14,56(sp)
   22a10:	002f1040 	call	2f104 <__sprint_r>
   22a14:	103b381e 	bne	r2,zero,216f8 <___vfprintf_internal_r+0x43c>
   22a18:	d8c01c17 	ldw	r3,112(sp)
   22a1c:	da001117 	ldw	r8,68(sp)
   22a20:	db400f17 	ldw	r13,60(sp)
   22a24:	db800e17 	ldw	r14,56(sp)
   22a28:	dd802704 	addi	r22,sp,156
   22a2c:	003af506 	br	21604 <___vfprintf_internal_r+0x348>
   22a30:	8825883a 	mov	r18,r17
   22a34:	003b3006 	br	216f8 <___vfprintf_internal_r+0x43c>
   22a38:	d9000917 	ldw	r4,36(sp)
   22a3c:	d9400a17 	ldw	r5,40(sp)
   22a40:	da000615 	stw	r8,24(sp)
   22a44:	200d883a 	mov	r6,r4
   22a48:	280f883a 	mov	r7,r5
   22a4c:	db000415 	stw	r12,16(sp)
   22a50:	00361080 	call	36108 <__unorddf2>
   22a54:	db000417 	ldw	r12,16(sp)
   22a58:	da000617 	ldw	r8,24(sp)
   22a5c:	1001ec1e 	bne	r2,zero,23210 <___vfprintf_internal_r+0x1f54>
   22a60:	057ff7c4 	movi	r21,-33
   22a64:	40bfffe0 	cmpeqi	r2,r8,-1
   22a68:	e56a703a 	and	r21,fp,r21
   22a6c:	1001961e 	bne	r2,zero,230c8 <___vfprintf_internal_r+0x1e0c>
   22a70:	a88011d8 	cmpnei	r2,r21,71
   22a74:	10013826 	beq	r2,zero,22f58 <___vfprintf_internal_r+0x1c9c>
   22a78:	60804014 	ori	r2,r12,256
   22a7c:	d8800415 	stw	r2,16(sp)
   22a80:	d8800a17 	ldw	r2,40(sp)
   22a84:	10011716 	blt	r2,zero,22ee4 <___vfprintf_internal_r+0x1c28>
   22a88:	dd000a17 	ldw	r20,40(sp)
   22a8c:	d8000605 	stb	zero,24(sp)
   22a90:	e08019a0 	cmpeqi	r2,fp,102
   22a94:	d8800f15 	stw	r2,60(sp)
   22a98:	1000bb1e 	bne	r2,zero,22d88 <___vfprintf_internal_r+0x1acc>
   22a9c:	e08011a0 	cmpeqi	r2,fp,70
   22aa0:	1000b91e 	bne	r2,zero,22d88 <___vfprintf_internal_r+0x1acc>
   22aa4:	a8801158 	cmpnei	r2,r21,69
   22aa8:	10014326 	beq	r2,zero,22fb8 <___vfprintf_internal_r+0x1cfc>
   22aac:	d8801804 	addi	r2,sp,96
   22ab0:	d8800315 	stw	r2,12(sp)
   22ab4:	d9400917 	ldw	r5,36(sp)
   22ab8:	d8801504 	addi	r2,sp,84
   22abc:	d8800215 	stw	r2,8(sp)
   22ac0:	d8801404 	addi	r2,sp,80
   22ac4:	da000015 	stw	r8,0(sp)
   22ac8:	9809883a 	mov	r4,r19
   22acc:	d8800115 	stw	r2,4(sp)
   22ad0:	01c00084 	movi	r7,2
   22ad4:	a00d883a 	mov	r6,r20
   22ad8:	db000815 	stw	r12,32(sp)
   22adc:	da000715 	stw	r8,28(sp)
   22ae0:	00250d00 	call	250d0 <_dtoa_r>
   22ae4:	da000717 	ldw	r8,28(sp)
   22ae8:	e10019d8 	cmpnei	r4,fp,103
   22aec:	db000817 	ldw	r12,32(sp)
   22af0:	1023883a 	mov	r17,r2
   22af4:	4007883a 	mov	r3,r8
   22af8:	2001431e 	bne	r4,zero,23008 <___vfprintf_internal_r+0x1d4c>
   22afc:	6080004c 	andi	r2,r12,1
   22b00:	1001431e 	bne	r2,zero,23010 <___vfprintf_internal_r+0x1d54>
   22b04:	d8801417 	ldw	r2,80(sp)
   22b08:	ad4011e0 	cmpeqi	r21,r21,71
   22b0c:	d8800715 	stw	r2,28(sp)
   22b10:	d8801817 	ldw	r2,96(sp)
   22b14:	1445c83a 	sub	r2,r2,r17
   22b18:	d8800815 	stw	r2,32(sp)
   22b1c:	a8000526 	beq	r21,zero,22b34 <___vfprintf_internal_r+0x1878>
   22b20:	d8c00717 	ldw	r3,28(sp)
   22b24:	18bfff50 	cmplti	r2,r3,-3
   22b28:	1000011e 	bne	r2,zero,22b30 <___vfprintf_internal_r+0x1874>
   22b2c:	40c1510e 	bge	r8,r3,23074 <___vfprintf_internal_r+0x1db8>
   22b30:	e73fff84 	addi	fp,fp,-2
   22b34:	d8c00717 	ldw	r3,28(sp)
   22b38:	e009883a 	mov	r4,fp
   22b3c:	18bfffc4 	addi	r2,r3,-1
   22b40:	10018516 	blt	r2,zero,23158 <___vfprintf_internal_r+0x1e9c>
   22b44:	102b883a 	mov	r21,r2
   22b48:	00c00ac4 	movi	r3,43
   22b4c:	d8801415 	stw	r2,80(sp)
   22b50:	d9001645 	stb	r4,89(sp)
   22b54:	d8c01685 	stb	r3,90(sp)
   22b58:	a8800290 	cmplti	r2,r21,10
   22b5c:	1001771e 	bne	r2,zero,2313c <___vfprintf_internal_r+0x1e80>
   22b60:	d98019c4 	addi	r6,sp,103
   22b64:	9029883a 	mov	r20,r18
   22b68:	dc400715 	stw	r17,28(sp)
   22b6c:	8025883a 	mov	r18,r16
   22b70:	db000f15 	stw	r12,60(sp)
   22b74:	3021883a 	mov	r16,r6
   22b78:	a809883a 	mov	r4,r21
   22b7c:	01400284 	movi	r5,10
   22b80:	0020f180 	call	20f18 <__modsi3>
   22b84:	10800c04 	addi	r2,r2,48
   22b88:	a809883a 	mov	r4,r21
   22b8c:	80bfffc5 	stb	r2,-1(r16)
   22b90:	01400284 	movi	r5,10
   22b94:	0020e980 	call	20e98 <__divsi3>
   22b98:	a9001908 	cmpgei	r4,r21,100
   22b9c:	8023883a 	mov	r17,r16
   22ba0:	102b883a 	mov	r21,r2
   22ba4:	843fffc4 	addi	r16,r16,-1
   22ba8:	203ff31e 	bne	r4,zero,22b78 <___vfprintf_internal_r+0x18bc>
   22bac:	800d883a 	mov	r6,r16
   22bb0:	11000c04 	addi	r4,r2,48
   22bb4:	9021883a 	mov	r16,r18
   22bb8:	a025883a 	mov	r18,r20
   22bbc:	8829883a 	mov	r20,r17
   22bc0:	a0bfff84 	addi	r2,r20,-2
   22bc4:	313fffc5 	stb	r4,-1(r6)
   22bc8:	d8c019c4 	addi	r3,sp,103
   22bcc:	db000f17 	ldw	r12,60(sp)
   22bd0:	dc400717 	ldw	r17,28(sp)
   22bd4:	10c1be2e 	bgeu	r2,r3,232d0 <___vfprintf_internal_r+0x2014>
   22bd8:	d8c016c4 	addi	r3,sp,91
   22bdc:	00000106 	br	22be4 <___vfprintf_internal_r+0x1928>
   22be0:	11000003 	ldbu	r4,0(r2)
   22be4:	19000005 	stb	r4,0(r3)
   22be8:	10800044 	addi	r2,r2,1
   22bec:	d90019c4 	addi	r4,sp,103
   22bf0:	18c00044 	addi	r3,r3,1
   22bf4:	113ffa1e 	bne	r2,r4,22be0 <___vfprintf_internal_r+0x1924>
   22bf8:	d8801a44 	addi	r2,sp,105
   22bfc:	d8c016c4 	addi	r3,sp,91
   22c00:	1505c83a 	sub	r2,r2,r20
   22c04:	1885883a 	add	r2,r3,r2
   22c08:	d8c01644 	addi	r3,sp,89
   22c0c:	10c5c83a 	sub	r2,r2,r3
   22c10:	d8801015 	stw	r2,64(sp)
   22c14:	d8c00817 	ldw	r3,32(sp)
   22c18:	d9001017 	ldw	r4,64(sp)
   22c1c:	18800088 	cmpgei	r2,r3,2
   22c20:	192b883a 	add	r21,r3,r4
   22c24:	10015326 	beq	r2,zero,23174 <___vfprintf_internal_r+0x1eb8>
   22c28:	d8800b17 	ldw	r2,44(sp)
   22c2c:	a8ab883a 	add	r21,r21,r2
   22c30:	a829883a 	mov	r20,r21
   22c34:	a800010e 	bge	r21,zero,22c3c <___vfprintf_internal_r+0x1980>
   22c38:	0029883a 	mov	r20,zero
   22c3c:	d8000715 	stw	zero,28(sp)
   22c40:	00008406 	br	22e54 <___vfprintf_internal_r+0x1b98>
   22c44:	880f883a 	mov	r7,r17
   22c48:	10800044 	addi	r2,r2,1
   22c4c:	1d47883a 	add	r3,r3,r21
   22c50:	b1c00015 	stw	r7,0(r22)
   22c54:	003a9106 	br	2169c <___vfprintf_internal_r+0x3e0>
   22c58:	d9801a04 	addi	r6,sp,104
   22c5c:	900b883a 	mov	r5,r18
   22c60:	9809883a 	mov	r4,r19
   22c64:	002f1040 	call	2f104 <__sprint_r>
   22c68:	103aa31e 	bne	r2,zero,216f8 <___vfprintf_internal_r+0x43c>
   22c6c:	d8c01c17 	ldw	r3,112(sp)
   22c70:	dd802704 	addi	r22,sp,156
   22c74:	003cac06 	br	21f28 <___vfprintf_internal_r+0xc6c>
   22c78:	d9801a04 	addi	r6,sp,104
   22c7c:	900b883a 	mov	r5,r18
   22c80:	9809883a 	mov	r4,r19
   22c84:	da000e15 	stw	r8,56(sp)
   22c88:	002f1040 	call	2f104 <__sprint_r>
   22c8c:	103a9a1e 	bne	r2,zero,216f8 <___vfprintf_internal_r+0x43c>
   22c90:	d8c01c17 	ldw	r3,112(sp)
   22c94:	da000e17 	ldw	r8,56(sp)
   22c98:	dd802704 	addi	r22,sp,156
   22c9c:	003a7606 	br	21678 <___vfprintf_internal_r+0x3bc>
   22ca0:	8809883a 	mov	r4,r17
   22ca4:	db000415 	stw	r12,16(sp)
   22ca8:	d8c00615 	stw	r3,24(sp)
   22cac:	00212240 	call	21224 <strlen>
   22cb0:	db000417 	ldw	r12,16(sp)
   22cb4:	102b883a 	mov	r21,r2
   22cb8:	1029883a 	mov	r20,r2
   22cbc:	003a4406 	br	215d0 <___vfprintf_internal_r+0x314>
   22cc0:	800f883a 	mov	r7,r16
   22cc4:	dc000717 	ldw	r16,28(sp)
   22cc8:	ad400044 	addi	r21,r21,1
   22ccc:	1d87883a 	add	r3,r3,r22
   22cd0:	e1c00015 	stw	r7,0(fp)
   22cd4:	003da106 	br	2235c <___vfprintf_internal_r+0x10a0>
   22cd8:	d8800d17 	ldw	r2,52(sp)
   22cdc:	d9000b17 	ldw	r4,44(sp)
   22ce0:	b0800015 	stw	r2,0(r22)
   22ce4:	d8801b17 	ldw	r2,108(sp)
   22ce8:	20c7883a 	add	r3,r4,r3
   22cec:	b1000115 	stw	r4,4(r22)
   22cf0:	10800044 	addi	r2,r2,1
   22cf4:	d8c01c15 	stw	r3,112(sp)
   22cf8:	d8801b15 	stw	r2,108(sp)
   22cfc:	11000208 	cmpgei	r4,r2,8
   22d00:	2000981e 	bne	r4,zero,22f64 <___vfprintf_internal_r+0x1ca8>
   22d04:	b5800204 	addi	r22,r22,8
   22d08:	a83d5c0e 	bge	r21,zero,2227c <___vfprintf_internal_r+0xfc0>
   22d0c:	01c00134 	movhi	r7,4
   22d10:	a93ffc08 	cmpgei	r4,r21,-16
   22d14:	39e08704 	addi	r7,r7,-32228
   22d18:	056bc83a 	sub	r21,zero,r21
   22d1c:	20011f1e 	bne	r4,zero,2319c <___vfprintf_internal_r+0x1ee0>
   22d20:	dc000715 	stw	r16,28(sp)
   22d24:	07000404 	movi	fp,16
   22d28:	9021883a 	mov	r16,r18
   22d2c:	3825883a 	mov	r18,r7
   22d30:	00000406 	br	22d44 <___vfprintf_internal_r+0x1a88>
   22d34:	b5800204 	addi	r22,r22,8
   22d38:	ad7ffc04 	addi	r21,r21,-16
   22d3c:	a9800448 	cmpgei	r6,r21,17
   22d40:	30011326 	beq	r6,zero,23190 <___vfprintf_internal_r+0x1ed4>
   22d44:	10800044 	addi	r2,r2,1
   22d48:	18c00404 	addi	r3,r3,16
   22d4c:	b4800015 	stw	r18,0(r22)
   22d50:	b7000115 	stw	fp,4(r22)
   22d54:	d8c01c15 	stw	r3,112(sp)
   22d58:	d8801b15 	stw	r2,108(sp)
   22d5c:	11800208 	cmpgei	r6,r2,8
   22d60:	303ff426 	beq	r6,zero,22d34 <___vfprintf_internal_r+0x1a78>
   22d64:	d9801a04 	addi	r6,sp,104
   22d68:	800b883a 	mov	r5,r16
   22d6c:	9809883a 	mov	r4,r19
   22d70:	002f1040 	call	2f104 <__sprint_r>
   22d74:	1001391e 	bne	r2,zero,2325c <___vfprintf_internal_r+0x1fa0>
   22d78:	d8c01c17 	ldw	r3,112(sp)
   22d7c:	d8801b17 	ldw	r2,108(sp)
   22d80:	dd802704 	addi	r22,sp,156
   22d84:	003fec06 	br	22d38 <___vfprintf_internal_r+0x1a7c>
   22d88:	d8801804 	addi	r2,sp,96
   22d8c:	d8800315 	stw	r2,12(sp)
   22d90:	d9400917 	ldw	r5,36(sp)
   22d94:	d8801504 	addi	r2,sp,84
   22d98:	d8800215 	stw	r2,8(sp)
   22d9c:	d8801404 	addi	r2,sp,80
   22da0:	da000015 	stw	r8,0(sp)
   22da4:	d8800115 	stw	r2,4(sp)
   22da8:	01c000c4 	movi	r7,3
   22dac:	a00d883a 	mov	r6,r20
   22db0:	9809883a 	mov	r4,r19
   22db4:	db000815 	stw	r12,32(sp)
   22db8:	da000715 	stw	r8,28(sp)
   22dbc:	00250d00 	call	250d0 <_dtoa_r>
   22dc0:	da000717 	ldw	r8,28(sp)
   22dc4:	1023883a 	mov	r17,r2
   22dc8:	db000817 	ldw	r12,32(sp)
   22dcc:	1207883a 	add	r3,r2,r8
   22dd0:	88800007 	ldb	r2,0(r17)
   22dd4:	10800c20 	cmpeqi	r2,r2,48
   22dd8:	10004f1e 	bne	r2,zero,22f18 <___vfprintf_internal_r+0x1c5c>
   22ddc:	d8801417 	ldw	r2,80(sp)
   22de0:	1893883a 	add	r9,r3,r2
   22de4:	d9000917 	ldw	r4,36(sp)
   22de8:	000d883a 	mov	r6,zero
   22dec:	000f883a 	mov	r7,zero
   22df0:	a00b883a 	mov	r5,r20
   22df4:	da401115 	stw	r9,68(sp)
   22df8:	da000815 	stw	r8,32(sp)
   22dfc:	db000715 	stw	r12,28(sp)
   22e00:	0034d9c0 	call	34d9c <__eqdf2>
   22e04:	db000717 	ldw	r12,28(sp)
   22e08:	da000817 	ldw	r8,32(sp)
   22e0c:	da401117 	ldw	r9,68(sp)
   22e10:	1000811e 	bne	r2,zero,23018 <___vfprintf_internal_r+0x1d5c>
   22e14:	4805883a 	mov	r2,r9
   22e18:	d8c01417 	ldw	r3,80(sp)
   22e1c:	1445c83a 	sub	r2,r2,r17
   22e20:	ad4011d8 	cmpnei	r21,r21,71
   22e24:	d8c00715 	stw	r3,28(sp)
   22e28:	d8800815 	stw	r2,32(sp)
   22e2c:	a83f3c26 	beq	r21,zero,22b20 <___vfprintf_internal_r+0x1864>
   22e30:	d8800f17 	ldw	r2,60(sp)
   22e34:	103f3f26 	beq	r2,zero,22b34 <___vfprintf_internal_r+0x1878>
   22e38:	d8c00717 	ldw	r3,28(sp)
   22e3c:	6080004c 	andi	r2,r12,1
   22e40:	1204b03a 	or	r2,r2,r8
   22e44:	00c10e0e 	bge	zero,r3,23280 <___vfprintf_internal_r+0x1fc4>
   22e48:	1000ff1e 	bne	r2,zero,23248 <___vfprintf_internal_r+0x1f8c>
   22e4c:	dd400717 	ldw	r21,28(sp)
   22e50:	a829883a 	mov	r20,r21
   22e54:	d8800607 	ldb	r2,24(sp)
   22e58:	10007826 	beq	r2,zero,2303c <___vfprintf_internal_r+0x1d80>
   22e5c:	00800b44 	movi	r2,45
   22e60:	d8801345 	stb	r2,77(sp)
   22e64:	d8800e17 	ldw	r2,56(sp)
   22e68:	0011883a 	mov	r8,zero
   22e6c:	d8800615 	stw	r2,24(sp)
   22e70:	003b3106 	br	21b38 <___vfprintf_internal_r+0x87c>
   22e74:	04400134 	movhi	r17,4
   22e78:	8c607604 	addi	r17,r17,-32296
   22e7c:	003ab606 	br	21958 <___vfprintf_internal_r+0x69c>
   22e80:	800f883a 	mov	r7,r16
   22e84:	dc000e17 	ldw	r16,56(sp)
   22e88:	10800044 	addi	r2,r2,1
   22e8c:	1d47883a 	add	r3,r3,r21
   22e90:	d8801b15 	stw	r2,108(sp)
   22e94:	b1c00015 	stw	r7,0(r22)
   22e98:	b5400115 	stw	r21,4(r22)
   22e9c:	d8c01c15 	stw	r3,112(sp)
   22ea0:	10800208 	cmpgei	r2,r2,8
   22ea4:	10003a1e 	bne	r2,zero,22f90 <___vfprintf_internal_r+0x1cd4>
   22ea8:	b5800204 	addi	r22,r22,8
   22eac:	003daf06 	br	2256c <___vfprintf_internal_r+0x12b0>
   22eb0:	00800b44 	movi	r2,45
   22eb4:	d8801345 	stb	r2,77(sp)
   22eb8:	03400b44 	movi	r13,45
   22ebc:	003aa206 	br	21948 <___vfprintf_internal_r+0x68c>
   22ec0:	d9801a04 	addi	r6,sp,104
   22ec4:	900b883a 	mov	r5,r18
   22ec8:	9809883a 	mov	r4,r19
   22ecc:	002f1040 	call	2f104 <__sprint_r>
   22ed0:	103a091e 	bne	r2,zero,216f8 <___vfprintf_internal_r+0x43c>
   22ed4:	dd401417 	ldw	r21,80(sp)
   22ed8:	d8c01c17 	ldw	r3,112(sp)
   22edc:	dd802704 	addi	r22,sp,156
   22ee0:	003cd406 	br	22234 <___vfprintf_internal_r+0xf78>
   22ee4:	1520003c 	xorhi	r20,r2,32768
   22ee8:	00800b44 	movi	r2,45
   22eec:	d8800605 	stb	r2,24(sp)
   22ef0:	003ee706 	br	22a90 <___vfprintf_internal_r+0x17d4>
   22ef4:	05400184 	movi	r21,6
   22ef8:	003e5c06 	br	2286c <___vfprintf_internal_r+0x15b0>
   22efc:	d9801a04 	addi	r6,sp,104
   22f00:	900b883a 	mov	r5,r18
   22f04:	9809883a 	mov	r4,r19
   22f08:	002f1040 	call	2f104 <__sprint_r>
   22f0c:	0039fa06 	br	216f8 <___vfprintf_internal_r+0x43c>
   22f10:	d9401345 	stb	r5,77(sp)
   22f14:	0039a806 	br	215b8 <___vfprintf_internal_r+0x2fc>
   22f18:	d9000917 	ldw	r4,36(sp)
   22f1c:	000d883a 	mov	r6,zero
   22f20:	000f883a 	mov	r7,zero
   22f24:	a00b883a 	mov	r5,r20
   22f28:	d8c01115 	stw	r3,68(sp)
   22f2c:	da000815 	stw	r8,32(sp)
   22f30:	db000715 	stw	r12,28(sp)
   22f34:	0034d9c0 	call	34d9c <__eqdf2>
   22f38:	db000717 	ldw	r12,28(sp)
   22f3c:	da000817 	ldw	r8,32(sp)
   22f40:	d8c01117 	ldw	r3,68(sp)
   22f44:	103fa526 	beq	r2,zero,22ddc <___vfprintf_internal_r+0x1b20>
   22f48:	00800044 	movi	r2,1
   22f4c:	1205c83a 	sub	r2,r2,r8
   22f50:	d8801415 	stw	r2,80(sp)
   22f54:	003fa206 	br	22de0 <___vfprintf_internal_r+0x1b24>
   22f58:	403ec71e 	bne	r8,zero,22a78 <___vfprintf_internal_r+0x17bc>
   22f5c:	02000044 	movi	r8,1
   22f60:	003ec506 	br	22a78 <___vfprintf_internal_r+0x17bc>
   22f64:	d9801a04 	addi	r6,sp,104
   22f68:	900b883a 	mov	r5,r18
   22f6c:	9809883a 	mov	r4,r19
   22f70:	002f1040 	call	2f104 <__sprint_r>
   22f74:	1039e01e 	bne	r2,zero,216f8 <___vfprintf_internal_r+0x43c>
   22f78:	dd401417 	ldw	r21,80(sp)
   22f7c:	d8c01c17 	ldw	r3,112(sp)
   22f80:	d8801b17 	ldw	r2,108(sp)
   22f84:	dd802704 	addi	r22,sp,156
   22f88:	a83cbc0e 	bge	r21,zero,2227c <___vfprintf_internal_r+0xfc0>
   22f8c:	003f5f06 	br	22d0c <___vfprintf_internal_r+0x1a50>
   22f90:	d9801a04 	addi	r6,sp,104
   22f94:	900b883a 	mov	r5,r18
   22f98:	9809883a 	mov	r4,r19
   22f9c:	002f1040 	call	2f104 <__sprint_r>
   22fa0:	1039d51e 	bne	r2,zero,216f8 <___vfprintf_internal_r+0x43c>
   22fa4:	d8c01c17 	ldw	r3,112(sp)
   22fa8:	dd802704 	addi	r22,sp,156
   22fac:	003d6f06 	br	2256c <___vfprintf_internal_r+0x12b0>
   22fb0:	db000417 	ldw	r12,16(sp)
   22fb4:	003ad306 	br	21b04 <___vfprintf_internal_r+0x848>
   22fb8:	d8801804 	addi	r2,sp,96
   22fbc:	d8800315 	stw	r2,12(sp)
   22fc0:	d9400917 	ldw	r5,36(sp)
   22fc4:	d8801504 	addi	r2,sp,84
   22fc8:	40c00044 	addi	r3,r8,1
   22fcc:	d8800215 	stw	r2,8(sp)
   22fd0:	d8801404 	addi	r2,sp,80
   22fd4:	d8c00015 	stw	r3,0(sp)
   22fd8:	d8800115 	stw	r2,4(sp)
   22fdc:	01c00084 	movi	r7,2
   22fe0:	a00d883a 	mov	r6,r20
   22fe4:	9809883a 	mov	r4,r19
   22fe8:	db001115 	stw	r12,68(sp)
   22fec:	da000815 	stw	r8,32(sp)
   22ff0:	d8c00715 	stw	r3,28(sp)
   22ff4:	00250d00 	call	250d0 <_dtoa_r>
   22ff8:	d8c00717 	ldw	r3,28(sp)
   22ffc:	da000817 	ldw	r8,32(sp)
   23000:	db001117 	ldw	r12,68(sp)
   23004:	1023883a 	mov	r17,r2
   23008:	e08011d8 	cmpnei	r2,fp,71
   2300c:	103ebb26 	beq	r2,zero,22afc <___vfprintf_internal_r+0x1840>
   23010:	88d3883a 	add	r9,r17,r3
   23014:	003f7306 	br	22de4 <___vfprintf_internal_r+0x1b28>
   23018:	d8801817 	ldw	r2,96(sp)
   2301c:	127f7e2e 	bgeu	r2,r9,22e18 <___vfprintf_internal_r+0x1b5c>
   23020:	01000c04 	movi	r4,48
   23024:	10c00044 	addi	r3,r2,1
   23028:	d8c01815 	stw	r3,96(sp)
   2302c:	11000005 	stb	r4,0(r2)
   23030:	d8801817 	ldw	r2,96(sp)
   23034:	127ffb36 	bltu	r2,r9,23024 <___vfprintf_internal_r+0x1d68>
   23038:	003f7706 	br	22e18 <___vfprintf_internal_r+0x1b5c>
   2303c:	d8800e17 	ldw	r2,56(sp)
   23040:	db401343 	ldbu	r13,77(sp)
   23044:	0011883a 	mov	r8,zero
   23048:	d8800615 	stw	r2,24(sp)
   2304c:	003ab606 	br	21b28 <___vfprintf_internal_r+0x86c>
   23050:	d9801a04 	addi	r6,sp,104
   23054:	900b883a 	mov	r5,r18
   23058:	9809883a 	mov	r4,r19
   2305c:	002f1040 	call	2f104 <__sprint_r>
   23060:	1039a51e 	bne	r2,zero,216f8 <___vfprintf_internal_r+0x43c>
   23064:	dd401417 	ldw	r21,80(sp)
   23068:	d8c01c17 	ldw	r3,112(sp)
   2306c:	dd802704 	addi	r22,sp,156
   23070:	003d4d06 	br	225a8 <___vfprintf_internal_r+0x12ec>
   23074:	d8800717 	ldw	r2,28(sp)
   23078:	d8c00817 	ldw	r3,32(sp)
   2307c:	10c05816 	blt	r2,r3,231e0 <___vfprintf_internal_r+0x1f24>
   23080:	6300004c 	andi	r12,r12,1
   23084:	d8800717 	ldw	r2,28(sp)
   23088:	6000691e 	bne	r12,zero,23230 <___vfprintf_internal_r+0x1f74>
   2308c:	1029883a 	mov	r20,r2
   23090:	1000010e 	bge	r2,zero,23098 <___vfprintf_internal_r+0x1ddc>
   23094:	0029883a 	mov	r20,zero
   23098:	dd400717 	ldw	r21,28(sp)
   2309c:	070019c4 	movi	fp,103
   230a0:	003f6c06 	br	22e54 <___vfprintf_internal_r+0x1b98>
   230a4:	d9801a04 	addi	r6,sp,104
   230a8:	900b883a 	mov	r5,r18
   230ac:	9809883a 	mov	r4,r19
   230b0:	002f1040 	call	2f104 <__sprint_r>
   230b4:	1039901e 	bne	r2,zero,216f8 <___vfprintf_internal_r+0x43c>
   230b8:	d8c01c17 	ldw	r3,112(sp)
   230bc:	dd802704 	addi	r22,sp,156
   230c0:	a83d270e 	bge	r21,zero,22560 <___vfprintf_internal_r+0x12a4>
   230c4:	003ddc06 	br	22838 <___vfprintf_internal_r+0x157c>
   230c8:	02000184 	movi	r8,6
   230cc:	003e6a06 	br	22a78 <___vfprintf_internal_r+0x17bc>
   230d0:	d9801a04 	addi	r6,sp,104
   230d4:	900b883a 	mov	r5,r18
   230d8:	9809883a 	mov	r4,r19
   230dc:	002f1040 	call	2f104 <__sprint_r>
   230e0:	1039851e 	bne	r2,zero,216f8 <___vfprintf_internal_r+0x43c>
   230e4:	dd401417 	ldw	r21,80(sp)
   230e8:	d8800817 	ldw	r2,32(sp)
   230ec:	d8c01c17 	ldw	r3,112(sp)
   230f0:	dd802704 	addi	r22,sp,156
   230f4:	156bc83a 	sub	r21,r2,r21
   230f8:	003d3e06 	br	225f4 <___vfprintf_internal_r+0x1338>
   230fc:	4029883a 	mov	r20,r8
   23100:	d8c00615 	stw	r3,24(sp)
   23104:	402b883a 	mov	r21,r8
   23108:	00393106 	br	215d0 <___vfprintf_internal_r+0x314>
   2310c:	d9401345 	stb	r5,77(sp)
   23110:	003aa906 	br	21bb8 <___vfprintf_internal_r+0x8fc>
   23114:	d9401345 	stb	r5,77(sp)
   23118:	003b5c06 	br	21e8c <___vfprintf_internal_r+0xbd0>
   2311c:	d9401345 	stb	r5,77(sp)
   23120:	003b3a06 	br	21e0c <___vfprintf_internal_r+0xb50>
   23124:	d9401345 	stb	r5,77(sp)
   23128:	0039dc06 	br	2189c <___vfprintf_internal_r+0x5e0>
   2312c:	d9401345 	stb	r5,77(sp)
   23130:	003a5f06 	br	21ab0 <___vfprintf_internal_r+0x7f4>
   23134:	d9401345 	stb	r5,77(sp)
   23138:	003af906 	br	21d20 <___vfprintf_internal_r+0xa64>
   2313c:	00800c04 	movi	r2,48
   23140:	ad400c04 	addi	r21,r21,48
   23144:	d88016c5 	stb	r2,91(sp)
   23148:	00800104 	movi	r2,4
   2314c:	dd401705 	stb	r21,92(sp)
   23150:	d8801015 	stw	r2,64(sp)
   23154:	003eaf06 	br	22c14 <___vfprintf_internal_r+0x1958>
   23158:	05400044 	movi	r21,1
   2315c:	a8ebc83a 	sub	r21,r21,r3
   23160:	00c00b44 	movi	r3,45
   23164:	003e7906 	br	22b4c <___vfprintf_internal_r+0x1890>
   23168:	00bfffc4 	movi	r2,-1
   2316c:	d8800515 	stw	r2,20(sp)
   23170:	00396406 	br	21704 <___vfprintf_internal_r+0x448>
   23174:	6080004c 	andi	r2,r12,1
   23178:	d8800715 	stw	r2,28(sp)
   2317c:	103eaa1e 	bne	r2,zero,22c28 <___vfprintf_internal_r+0x196c>
   23180:	a829883a 	mov	r20,r21
   23184:	a83f330e 	bge	r21,zero,22e54 <___vfprintf_internal_r+0x1b98>
   23188:	0029883a 	mov	r20,zero
   2318c:	003f3106 	br	22e54 <___vfprintf_internal_r+0x1b98>
   23190:	900f883a 	mov	r7,r18
   23194:	8025883a 	mov	r18,r16
   23198:	dc000717 	ldw	r16,28(sp)
   2319c:	10800044 	addi	r2,r2,1
   231a0:	1d47883a 	add	r3,r3,r21
   231a4:	b1c00015 	stw	r7,0(r22)
   231a8:	b5400115 	stw	r21,4(r22)
   231ac:	d8c01c15 	stw	r3,112(sp)
   231b0:	d8801b15 	stw	r2,108(sp)
   231b4:	11000208 	cmpgei	r4,r2,8
   231b8:	203c2f26 	beq	r4,zero,22278 <___vfprintf_internal_r+0xfbc>
   231bc:	d9801a04 	addi	r6,sp,104
   231c0:	900b883a 	mov	r5,r18
   231c4:	9809883a 	mov	r4,r19
   231c8:	002f1040 	call	2f104 <__sprint_r>
   231cc:	10394a1e 	bne	r2,zero,216f8 <___vfprintf_internal_r+0x43c>
   231d0:	d8c01c17 	ldw	r3,112(sp)
   231d4:	d8801b17 	ldw	r2,108(sp)
   231d8:	dd802704 	addi	r22,sp,156
   231dc:	003c2706 	br	2227c <___vfprintf_internal_r+0xfc0>
   231e0:	d8800817 	ldw	r2,32(sp)
   231e4:	d8c00b17 	ldw	r3,44(sp)
   231e8:	10eb883a 	add	r21,r2,r3
   231ec:	d8800717 	ldw	r2,28(sp)
   231f0:	00800316 	blt	zero,r2,23200 <___vfprintf_internal_r+0x1f44>
   231f4:	d8800717 	ldw	r2,28(sp)
   231f8:	a8abc83a 	sub	r21,r21,r2
   231fc:	ad400044 	addi	r21,r21,1
   23200:	a829883a 	mov	r20,r21
   23204:	a8000e16 	blt	r21,zero,23240 <___vfprintf_internal_r+0x1f84>
   23208:	070019c4 	movi	fp,103
   2320c:	003f1106 	br	22e54 <___vfprintf_internal_r+0x1b98>
   23210:	d8800a17 	ldw	r2,40(sp)
   23214:	10001616 	blt	r2,zero,23270 <___vfprintf_internal_r+0x1fb4>
   23218:	db401343 	ldbu	r13,77(sp)
   2321c:	e0801210 	cmplti	r2,fp,72
   23220:	1000101e 	bne	r2,zero,23264 <___vfprintf_internal_r+0x1fa8>
   23224:	04400134 	movhi	r17,4
   23228:	8c607904 	addi	r17,r17,-32284
   2322c:	0039ca06 	br	21958 <___vfprintf_internal_r+0x69c>
   23230:	d8c00b17 	ldw	r3,44(sp)
   23234:	10eb883a 	add	r21,r2,r3
   23238:	a829883a 	mov	r20,r21
   2323c:	a83ff20e 	bge	r21,zero,23208 <___vfprintf_internal_r+0x1f4c>
   23240:	0029883a 	mov	r20,zero
   23244:	003ff006 	br	23208 <___vfprintf_internal_r+0x1f4c>
   23248:	d8800717 	ldw	r2,28(sp)
   2324c:	d8c00b17 	ldw	r3,44(sp)
   23250:	10eb883a 	add	r21,r2,r3
   23254:	aa2b883a 	add	r21,r21,r8
   23258:	003fc906 	br	23180 <___vfprintf_internal_r+0x1ec4>
   2325c:	8025883a 	mov	r18,r16
   23260:	00392506 	br	216f8 <___vfprintf_internal_r+0x43c>
   23264:	04400134 	movhi	r17,4
   23268:	8c607804 	addi	r17,r17,-32288
   2326c:	0039ba06 	br	21958 <___vfprintf_internal_r+0x69c>
   23270:	00800b44 	movi	r2,45
   23274:	d8801345 	stb	r2,77(sp)
   23278:	03400b44 	movi	r13,45
   2327c:	003fe706 	br	2321c <___vfprintf_internal_r+0x1f60>
   23280:	1000031e 	bne	r2,zero,23290 <___vfprintf_internal_r+0x1fd4>
   23284:	05000044 	movi	r20,1
   23288:	05400044 	movi	r21,1
   2328c:	003ef106 	br	22e54 <___vfprintf_internal_r+0x1b98>
   23290:	d8800b17 	ldw	r2,44(sp)
   23294:	15400044 	addi	r21,r2,1
   23298:	aa2b883a 	add	r21,r21,r8
   2329c:	003fb806 	br	23180 <___vfprintf_internal_r+0x1ec4>
   232a0:	d8c00617 	ldw	r3,24(sp)
   232a4:	1a000017 	ldw	r8,0(r3)
   232a8:	18c00104 	addi	r3,r3,4
   232ac:	4000010e 	bge	r8,zero,232b4 <___vfprintf_internal_r+0x1ff8>
   232b0:	023fffc4 	movi	r8,-1
   232b4:	bf000043 	ldbu	fp,1(r23)
   232b8:	d8c00615 	stw	r3,24(sp)
   232bc:	102f883a 	mov	r23,r2
   232c0:	e2c03fcc 	andi	r11,fp,255
   232c4:	5ac0201c 	xori	r11,r11,128
   232c8:	5affe004 	addi	r11,r11,-128
   232cc:	00384706 	br	213ec <___vfprintf_internal_r+0x130>
   232d0:	00800084 	movi	r2,2
   232d4:	d8801015 	stw	r2,64(sp)
   232d8:	003e4e06 	br	22c14 <___vfprintf_internal_r+0x1958>

000232dc <__vfprintf_internal>:
   232dc:	00c00134 	movhi	r3,4
   232e0:	2005883a 	mov	r2,r4
   232e4:	1928bb17 	ldw	r4,-23828(r3)
   232e8:	300f883a 	mov	r7,r6
   232ec:	280d883a 	mov	r6,r5
   232f0:	100b883a 	mov	r5,r2
   232f4:	00212bc1 	jmpi	212bc <___vfprintf_internal_r>

000232f8 <__sbprintf>:
   232f8:	2880030b 	ldhu	r2,12(r5)
   232fc:	2b001917 	ldw	r12,100(r5)
   23300:	2ac0038b 	ldhu	r11,14(r5)
   23304:	2a800717 	ldw	r10,28(r5)
   23308:	2a400917 	ldw	r9,36(r5)
   2330c:	defee204 	addi	sp,sp,-1144
   23310:	da001a04 	addi	r8,sp,104
   23314:	00c10004 	movi	r3,1024
   23318:	dc011a15 	stw	r16,1128(sp)
   2331c:	10bfff4c 	andi	r2,r2,65533
   23320:	2821883a 	mov	r16,r5
   23324:	d80b883a 	mov	r5,sp
   23328:	dc811c15 	stw	r18,1136(sp)
   2332c:	dc411b15 	stw	r17,1132(sp)
   23330:	dfc11d15 	stw	ra,1140(sp)
   23334:	2025883a 	mov	r18,r4
   23338:	d880030d 	sth	r2,12(sp)
   2333c:	db001915 	stw	r12,100(sp)
   23340:	dac0038d 	sth	r11,14(sp)
   23344:	da800715 	stw	r10,28(sp)
   23348:	da400915 	stw	r9,36(sp)
   2334c:	da000015 	stw	r8,0(sp)
   23350:	da000415 	stw	r8,16(sp)
   23354:	d8c00215 	stw	r3,8(sp)
   23358:	d8c00515 	stw	r3,20(sp)
   2335c:	d8000615 	stw	zero,24(sp)
   23360:	00212bc0 	call	212bc <___vfprintf_internal_r>
   23364:	1023883a 	mov	r17,r2
   23368:	10000d0e 	bge	r2,zero,233a0 <__sbprintf+0xa8>
   2336c:	d880030b 	ldhu	r2,12(sp)
   23370:	1080100c 	andi	r2,r2,64
   23374:	10000326 	beq	r2,zero,23384 <__sbprintf+0x8c>
   23378:	8080030b 	ldhu	r2,12(r16)
   2337c:	10801014 	ori	r2,r2,64
   23380:	8080030d 	sth	r2,12(r16)
   23384:	8805883a 	mov	r2,r17
   23388:	dfc11d17 	ldw	ra,1140(sp)
   2338c:	dc811c17 	ldw	r18,1136(sp)
   23390:	dc411b17 	ldw	r17,1132(sp)
   23394:	dc011a17 	ldw	r16,1128(sp)
   23398:	dec11e04 	addi	sp,sp,1144
   2339c:	f800283a 	ret
   233a0:	d80b883a 	mov	r5,sp
   233a4:	9009883a 	mov	r4,r18
   233a8:	0026a540 	call	26a54 <_fflush_r>
   233ac:	103fef26 	beq	r2,zero,2336c <__sbprintf+0x74>
   233b0:	047fffc4 	movi	r17,-1
   233b4:	003fed06 	br	2336c <__sbprintf+0x74>

000233b8 <__svfscanf_r>:
   233b8:	2880030b 	ldhu	r2,12(r5)
   233bc:	deff4c04 	addi	sp,sp,-720
   233c0:	ddc0b115 	stw	r23,708(sp)
   233c4:	dc00aa15 	stw	r16,680(sp)
   233c8:	dfc0b315 	stw	ra,716(sp)
   233cc:	df00b215 	stw	fp,712(sp)
   233d0:	dd80b015 	stw	r22,704(sp)
   233d4:	dd40af15 	stw	r21,700(sp)
   233d8:	dd00ae15 	stw	r20,696(sp)
   233dc:	dcc0ad15 	stw	r19,692(sp)
   233e0:	dc80ac15 	stw	r18,688(sp)
   233e4:	dc40ab15 	stw	r17,684(sp)
   233e8:	10c8000c 	andi	r3,r2,8192
   233ec:	d9c00215 	stw	r7,8(sp)
   233f0:	282f883a 	mov	r23,r5
   233f4:	2021883a 	mov	r16,r4
   233f8:	1800061e 	bne	r3,zero,23414 <__svfscanf_r+0x5c>
   233fc:	28c01917 	ldw	r3,100(r5)
   23400:	0137ffc4 	movi	r4,-8193
   23404:	10880014 	ori	r2,r2,8192
   23408:	1906703a 	and	r3,r3,r4
   2340c:	2880030d 	sth	r2,12(r5)
   23410:	28c01915 	stw	r3,100(r5)
   23414:	30800003 	ldbu	r2,0(r6)
   23418:	35400044 	addi	r21,r6,1
   2341c:	d8800d15 	stw	r2,52(sp)
   23420:	1005b726 	beq	r2,zero,24b00 <__svfscanf_r+0x1748>
   23424:	0039883a 	mov	fp,zero
   23428:	e025883a 	mov	r18,fp
   2342c:	d8000415 	stw	zero,16(sp)
   23430:	0023883a 	mov	r17,zero
   23434:	d8000315 	stw	zero,12(sp)
   23438:	d8000115 	stw	zero,4(sp)
   2343c:	b839883a 	mov	fp,r23
   23440:	00c00134 	movhi	r3,4
   23444:	10c7883a 	add	r3,r2,r3
   23448:	18e09943 	ldbu	r3,-32155(r3)
   2344c:	18c0020c 	andi	r3,r3,8
   23450:	1800771e 	bne	r3,zero,23630 <__svfscanf_r+0x278>
   23454:	10800958 	cmpnei	r2,r2,37
   23458:	1000621e 	bne	r2,zero,235e4 <__svfscanf_r+0x22c>
   2345c:	a9800003 	ldbu	r6,0(r21)
   23460:	0029883a 	mov	r20,zero
   23464:	002d883a 	mov	r22,zero
   23468:	30bff6c4 	addi	r2,r6,-37
   2346c:	10803fcc 	andi	r2,r2,255
   23470:	10c01528 	cmpgeui	r3,r2,84
   23474:	a9400044 	addi	r5,r21,1
   23478:	1800601e 	bne	r3,zero,235fc <__svfscanf_r+0x244>
   2347c:	100490ba 	slli	r2,r2,2
   23480:	00c000b4 	movhi	r3,2
   23484:	10c7883a 	add	r3,r2,r3
   23488:	188d2417 	ldw	r2,13456(r3)
   2348c:	1000683a 	jmp	r2
   23490:	000235e0 	cmpeqi	zero,zero,2263
   23494:	000235fc 	xorhi	zero,zero,2263
   23498:	000235fc 	xorhi	zero,zero,2263
   2349c:	000235fc 	xorhi	zero,zero,2263
   234a0:	000235fc 	xorhi	zero,zero,2263
   234a4:	000239f8 	rdprs	zero,zero,2279
   234a8:	000235fc 	xorhi	zero,zero,2263
   234ac:	000235fc 	xorhi	zero,zero,2263
   234b0:	000235fc 	xorhi	zero,zero,2263
   234b4:	000235fc 	xorhi	zero,zero,2263
   234b8:	000235fc 	xorhi	zero,zero,2263
   234bc:	000236f0 	cmpltui	zero,zero,2267
   234c0:	000236f0 	cmpltui	zero,zero,2267
   234c4:	000236f0 	cmpltui	zero,zero,2267
   234c8:	000236f0 	cmpltui	zero,zero,2267
   234cc:	000236f0 	cmpltui	zero,zero,2267
   234d0:	000236f0 	cmpltui	zero,zero,2267
   234d4:	000236f0 	cmpltui	zero,zero,2267
   234d8:	000236f0 	cmpltui	zero,zero,2267
   234dc:	000236f0 	cmpltui	zero,zero,2267
   234e0:	000236f0 	cmpltui	zero,zero,2267
   234e4:	000235fc 	xorhi	zero,zero,2263
   234e8:	000235fc 	xorhi	zero,zero,2263
   234ec:	000235fc 	xorhi	zero,zero,2263
   234f0:	000235fc 	xorhi	zero,zero,2263
   234f4:	000235fc 	xorhi	zero,zero,2263
   234f8:	000235fc 	xorhi	zero,zero,2263
   234fc:	000235fc 	xorhi	zero,zero,2263
   23500:	000235fc 	xorhi	zero,zero,2263
   23504:	000235fc 	xorhi	zero,zero,2263
   23508:	000235fc 	xorhi	zero,zero,2263
   2350c:	000239d4 	movui	zero,2279
   23510:	0002371c 	xori	zero,zero,2268
   23514:	000235fc 	xorhi	zero,zero,2263
   23518:	0002371c 	xori	zero,zero,2268
   2351c:	000235fc 	xorhi	zero,zero,2263
   23520:	000235fc 	xorhi	zero,zero,2263
   23524:	000235fc 	xorhi	zero,zero,2263
   23528:	000235fc 	xorhi	zero,zero,2263
   2352c:	0002389c 	xori	zero,zero,2274
   23530:	000235fc 	xorhi	zero,zero,2263
   23534:	000235fc 	xorhi	zero,zero,2263
   23538:	000238b4 	movhi	zero,2274
   2353c:	000235fc 	xorhi	zero,zero,2263
   23540:	000235fc 	xorhi	zero,zero,2263
   23544:	000235fc 	xorhi	zero,zero,2263
   23548:	000235fc 	xorhi	zero,zero,2263
   2354c:	000235fc 	xorhi	zero,zero,2263
   23550:	000235fc 	xorhi	zero,zero,2263
   23554:	000235fc 	xorhi	zero,zero,2263
   23558:	000235fc 	xorhi	zero,zero,2263
   2355c:	000237ec 	andhi	zero,zero,2271
   23560:	000235fc 	xorhi	zero,zero,2263
   23564:	000235fc 	xorhi	zero,zero,2263
   23568:	000239bc 	xorhi	zero,zero,2278
   2356c:	000235fc 	xorhi	zero,zero,2263
   23570:	000235fc 	xorhi	zero,zero,2263
   23574:	000235fc 	xorhi	zero,zero,2263
   23578:	000235fc 	xorhi	zero,zero,2263
   2357c:	000235fc 	xorhi	zero,zero,2263
   23580:	000235fc 	xorhi	zero,zero,2263
   23584:	000235fc 	xorhi	zero,zero,2263
   23588:	0002391c 	xori	zero,zero,2276
   2358c:	000249cc 	andi	zero,zero,2343
   23590:	0002371c 	xori	zero,zero,2268
   23594:	0002371c 	xori	zero,zero,2268
   23598:	0002371c 	xori	zero,zero,2268
   2359c:	00023964 	muli	zero,zero,2277
   235a0:	0002397c 	xorhi	zero,zero,2277
   235a4:	000235fc 	xorhi	zero,zero,2263
   235a8:	000235fc 	xorhi	zero,zero,2263
   235ac:	00023998 	cmpnei	zero,zero,2278
   235b0:	000235fc 	xorhi	zero,zero,2263
   235b4:	000238d8 	cmpnei	zero,zero,2275
   235b8:	000249c4 	movi	zero,2343
   235bc:	0002392c 	andhi	zero,zero,2276
   235c0:	000235fc 	xorhi	zero,zero,2263
   235c4:	000235fc 	xorhi	zero,zero,2263
   235c8:	00023938 	rdprs	zero,zero,2276
   235cc:	000235fc 	xorhi	zero,zero,2263
   235d0:	00023944 	movi	zero,2277
   235d4:	000235fc 	xorhi	zero,zero,2263
   235d8:	000235fc 	xorhi	zero,zero,2263
   235dc:	000237ec 	andhi	zero,zero,2271
   235e0:	282b883a 	mov	r21,r5
   235e4:	e0800117 	ldw	r2,4(fp)
   235e8:	0080350e 	bge	zero,r2,236c0 <__svfscanf_r+0x308>
   235ec:	e0800017 	ldw	r2,0(fp)
   235f0:	a8ffffc3 	ldbu	r3,-1(r21)
   235f4:	11000003 	ldbu	r4,0(r2)
   235f8:	20c02626 	beq	r4,r3,23694 <__svfscanf_r+0x2dc>
   235fc:	d8800117 	ldw	r2,4(sp)
   23600:	dfc0b317 	ldw	ra,716(sp)
   23604:	df00b217 	ldw	fp,712(sp)
   23608:	ddc0b117 	ldw	r23,708(sp)
   2360c:	dd80b017 	ldw	r22,704(sp)
   23610:	dd40af17 	ldw	r21,700(sp)
   23614:	dd00ae17 	ldw	r20,696(sp)
   23618:	dcc0ad17 	ldw	r19,692(sp)
   2361c:	dc80ac17 	ldw	r18,688(sp)
   23620:	dc40ab17 	ldw	r17,684(sp)
   23624:	dc00aa17 	ldw	r16,680(sp)
   23628:	dec0b404 	addi	sp,sp,720
   2362c:	f800283a 	ret
   23630:	e0800117 	ldw	r2,4(fp)
   23634:	00800e0e 	bge	zero,r2,23670 <__svfscanf_r+0x2b8>
   23638:	e0800017 	ldw	r2,0(fp)
   2363c:	00c00134 	movhi	r3,4
   23640:	11400003 	ldbu	r5,0(r2)
   23644:	10800044 	addi	r2,r2,1
   23648:	28c7883a 	add	r3,r5,r3
   2364c:	18e09943 	ldbu	r3,-32155(r3)
   23650:	18c0020c 	andi	r3,r3,8
   23654:	18000a26 	beq	r3,zero,23680 <__svfscanf_r+0x2c8>
   23658:	e0c00117 	ldw	r3,4(fp)
   2365c:	e0800015 	stw	r2,0(fp)
   23660:	94800044 	addi	r18,r18,1
   23664:	18bfffc4 	addi	r2,r3,-1
   23668:	e0800115 	stw	r2,4(fp)
   2366c:	00bff216 	blt	zero,r2,23638 <__svfscanf_r+0x280>
   23670:	e00b883a 	mov	r5,fp
   23674:	8009883a 	mov	r4,r16
   23678:	002a3880 	call	2a388 <__srefill_r>
   2367c:	103fee26 	beq	r2,zero,23638 <__svfscanf_r+0x280>
   23680:	a8800003 	ldbu	r2,0(r21)
   23684:	ad400044 	addi	r21,r21,1
   23688:	d8800d15 	stw	r2,52(sp)
   2368c:	103f6c1e 	bne	r2,zero,23440 <__svfscanf_r+0x88>
   23690:	003fda06 	br	235fc <__svfscanf_r+0x244>
   23694:	e0c00117 	ldw	r3,4(fp)
   23698:	10800044 	addi	r2,r2,1
   2369c:	e0800015 	stw	r2,0(fp)
   236a0:	18bfffc4 	addi	r2,r3,-1
   236a4:	e0800115 	stw	r2,4(fp)
   236a8:	a8800003 	ldbu	r2,0(r21)
   236ac:	94800044 	addi	r18,r18,1
   236b0:	ad400044 	addi	r21,r21,1
   236b4:	d8800d15 	stw	r2,52(sp)
   236b8:	103f611e 	bne	r2,zero,23440 <__svfscanf_r+0x88>
   236bc:	003fcf06 	br	235fc <__svfscanf_r+0x244>
   236c0:	e00b883a 	mov	r5,fp
   236c4:	8009883a 	mov	r4,r16
   236c8:	002a3880 	call	2a388 <__srefill_r>
   236cc:	103fc726 	beq	r2,zero,235ec <__svfscanf_r+0x234>
   236d0:	d8800117 	ldw	r2,4(sp)
   236d4:	10000326 	beq	r2,zero,236e4 <__svfscanf_r+0x32c>
   236d8:	e080030b 	ldhu	r2,12(fp)
   236dc:	1080100c 	andi	r2,r2,64
   236e0:	103fc626 	beq	r2,zero,235fc <__svfscanf_r+0x244>
   236e4:	00bfffc4 	movi	r2,-1
   236e8:	d8800115 	stw	r2,4(sp)
   236ec:	003fc306 	br	235fc <__svfscanf_r+0x244>
   236f0:	a08023cc 	andi	r2,r20,143
   236f4:	103fc11e 	bne	r2,zero,235fc <__svfscanf_r+0x244>
   236f8:	b00490ba 	slli	r2,r22,2
   236fc:	30c03fcc 	andi	r3,r6,255
   23700:	a9800043 	ldbu	r6,1(r21)
   23704:	15ad883a 	add	r22,r2,r22
   23708:	b5ad883a 	add	r22,r22,r22
   2370c:	b0ed883a 	add	r22,r22,r3
   23710:	b5bff404 	addi	r22,r22,-48
   23714:	282b883a 	mov	r21,r5
   23718:	003f5306 	br	23468 <__svfscanf_r+0xb0>
   2371c:	282b883a 	mov	r21,r5
   23720:	04c00104 	movi	r19,4
   23724:	e0800117 	ldw	r2,4(fp)
   23728:	00803a0e 	bge	zero,r2,23814 <__svfscanf_r+0x45c>
   2372c:	a080100c 	andi	r2,r20,64
   23730:	10003e26 	beq	r2,zero,2382c <__svfscanf_r+0x474>
   23734:	988000e0 	cmpeqi	r2,r19,3
   23738:	1000cb1e 	bne	r2,zero,23a68 <__svfscanf_r+0x6b0>
   2373c:	98800120 	cmpeqi	r2,r19,4
   23740:	1001b81e 	bne	r2,zero,23e24 <__svfscanf_r+0xa6c>
   23744:	98800060 	cmpeqi	r2,r19,1
   23748:	1001881e 	bne	r2,zero,23d6c <__svfscanf_r+0x9b4>
   2374c:	9cc000a0 	cmpeqi	r19,r19,2
   23750:	9800af26 	beq	r19,zero,23a10 <__svfscanf_r+0x658>
   23754:	b000011e 	bne	r22,zero,2375c <__svfscanf_r+0x3a4>
   23758:	05bfffc4 	movi	r22,-1
   2375c:	e1000017 	ldw	r4,0(fp)
   23760:	00800134 	movhi	r2,4
   23764:	a140004c 	andi	r5,r20,1
   23768:	21800003 	ldbu	r6,0(r4)
   2376c:	a500040c 	andi	r20,r20,16
   23770:	3085883a 	add	r2,r6,r2
   23774:	10a09943 	ldbu	r2,-32155(r2)
   23778:	1080020c 	andi	r2,r2,8
   2377c:	2803051e 	bne	r5,zero,24394 <__svfscanf_r+0xfdc>
   23780:	a0038a26 	beq	r20,zero,245ac <__svfscanf_r+0x11f4>
   23784:	103fbe1e 	bne	r2,zero,23680 <__svfscanf_r+0x2c8>
   23788:	e0800117 	ldw	r2,4(fp)
   2378c:	21000044 	addi	r4,r4,1
   23790:	e1000015 	stw	r4,0(fp)
   23794:	10bfffc4 	addi	r2,r2,-1
   23798:	e0800115 	stw	r2,4(fp)
   2379c:	b1000058 	cmpnei	r4,r22,1
   237a0:	04c00044 	movi	r19,1
   237a4:	20049b26 	beq	r4,zero,24a14 <__svfscanf_r+0x165c>
   237a8:	0082e70e 	bge	zero,r2,24348 <__svfscanf_r+0xf90>
   237ac:	e0800017 	ldw	r2,0(fp)
   237b0:	00c00134 	movhi	r3,4
   237b4:	11400003 	ldbu	r5,0(r2)
   237b8:	10800044 	addi	r2,r2,1
   237bc:	28c7883a 	add	r3,r5,r3
   237c0:	18e09943 	ldbu	r3,-32155(r3)
   237c4:	18c0020c 	andi	r3,r3,8
   237c8:	1802e31e 	bne	r3,zero,24358 <__svfscanf_r+0xfa0>
   237cc:	e0c00117 	ldw	r3,4(fp)
   237d0:	e0800015 	stw	r2,0(fp)
   237d4:	9cc00044 	addi	r19,r19,1
   237d8:	18bfffc4 	addi	r2,r3,-1
   237dc:	e0800115 	stw	r2,4(fp)
   237e0:	b4fff11e 	bne	r22,r19,237a8 <__svfscanf_r+0x3f0>
   237e4:	95a5883a 	add	r18,r18,r22
   237e8:	003fa506 	br	23680 <__svfscanf_r+0x2c8>
   237ec:	008000f4 	movhi	r2,3
   237f0:	a5008014 	ori	r20,r20,512
   237f4:	10b29c04 	addi	r2,r2,-13712
   237f8:	d8800415 	stw	r2,16(sp)
   237fc:	00800404 	movi	r2,16
   23800:	d8800315 	stw	r2,12(sp)
   23804:	e0800117 	ldw	r2,4(fp)
   23808:	282b883a 	mov	r21,r5
   2380c:	04c000c4 	movi	r19,3
   23810:	00bfc616 	blt	zero,r2,2372c <__svfscanf_r+0x374>
   23814:	e00b883a 	mov	r5,fp
   23818:	8009883a 	mov	r4,r16
   2381c:	002a3880 	call	2a388 <__srefill_r>
   23820:	103fab1e 	bne	r2,zero,236d0 <__svfscanf_r+0x318>
   23824:	a080100c 	andi	r2,r20,64
   23828:	103fc21e 	bne	r2,zero,23734 <__svfscanf_r+0x37c>
   2382c:	e1000017 	ldw	r4,0(fp)
   23830:	00800134 	movhi	r2,4
   23834:	21400003 	ldbu	r5,0(r4)
   23838:	2885883a 	add	r2,r5,r2
   2383c:	10a09943 	ldbu	r2,-32155(r2)
   23840:	1080020c 	andi	r2,r2,8
   23844:	103fbb26 	beq	r2,zero,23734 <__svfscanf_r+0x37c>
   23848:	2007883a 	mov	r3,r4
   2384c:	00000706 	br	2386c <__svfscanf_r+0x4b4>
   23850:	e0c00015 	stw	r3,0(fp)
   23854:	19000003 	ldbu	r4,0(r3)
   23858:	00800134 	movhi	r2,4
   2385c:	2085883a 	add	r2,r4,r2
   23860:	10a09943 	ldbu	r2,-32155(r2)
   23864:	1080020c 	andi	r2,r2,8
   23868:	103fb226 	beq	r2,zero,23734 <__svfscanf_r+0x37c>
   2386c:	e0800117 	ldw	r2,4(fp)
   23870:	18c00044 	addi	r3,r3,1
   23874:	94800044 	addi	r18,r18,1
   23878:	10bfffc4 	addi	r2,r2,-1
   2387c:	e0800115 	stw	r2,4(fp)
   23880:	00bff316 	blt	zero,r2,23850 <__svfscanf_r+0x498>
   23884:	e00b883a 	mov	r5,fp
   23888:	8009883a 	mov	r4,r16
   2388c:	002a3880 	call	2a388 <__srefill_r>
   23890:	103f8f1e 	bne	r2,zero,236d0 <__svfscanf_r+0x318>
   23894:	e0c00017 	ldw	r3,0(fp)
   23898:	003fee06 	br	23854 <__svfscanf_r+0x49c>
   2389c:	a08003cc 	andi	r2,r20,15
   238a0:	103f561e 	bne	r2,zero,235fc <__svfscanf_r+0x244>
   238a4:	a9800043 	ldbu	r6,1(r21)
   238a8:	a5000094 	ori	r20,r20,2
   238ac:	282b883a 	mov	r21,r5
   238b0:	003eed06 	br	23468 <__svfscanf_r+0xb0>
   238b4:	008000f4 	movhi	r2,3
   238b8:	a5000054 	ori	r20,r20,1
   238bc:	10b29c04 	addi	r2,r2,-13712
   238c0:	d8800415 	stw	r2,16(sp)
   238c4:	00800204 	movi	r2,8
   238c8:	282b883a 	mov	r21,r5
   238cc:	d8800315 	stw	r2,12(sp)
   238d0:	04c000c4 	movi	r19,3
   238d4:	003f9306 	br	23724 <__svfscanf_r+0x36c>
   238d8:	a080040c 	andi	r2,r20,16
   238dc:	1004071e 	bne	r2,zero,248fc <__svfscanf_r+0x1544>
   238e0:	d9000217 	ldw	r4,8(sp)
   238e4:	a080010c 	andi	r2,r20,4
   238e8:	20c00017 	ldw	r3,0(r4)
   238ec:	21000104 	addi	r4,r4,4
   238f0:	1004301e 	bne	r2,zero,249b4 <__svfscanf_r+0x15fc>
   238f4:	a080004c 	andi	r2,r20,1
   238f8:	1004831e 	bne	r2,zero,24b08 <__svfscanf_r+0x1750>
   238fc:	a500008c 	andi	r20,r20,2
   23900:	a0048126 	beq	r20,zero,24b08 <__svfscanf_r+0x1750>
   23904:	9005d7fa 	srai	r2,r18,31
   23908:	1c800015 	stw	r18,0(r3)
   2390c:	d9000215 	stw	r4,8(sp)
   23910:	18800115 	stw	r2,4(r3)
   23914:	282b883a 	mov	r21,r5
   23918:	003f5906 	br	23680 <__svfscanf_r+0x2c8>
   2391c:	a5001014 	ori	r20,r20,64
   23920:	282b883a 	mov	r21,r5
   23924:	0027883a 	mov	r19,zero
   23928:	003f7e06 	br	23724 <__svfscanf_r+0x36c>
   2392c:	008000f4 	movhi	r2,3
   23930:	a5008814 	ori	r20,r20,544
   23934:	003faf06 	br	237f4 <__svfscanf_r+0x43c>
   23938:	282b883a 	mov	r21,r5
   2393c:	04c00084 	movi	r19,2
   23940:	003f7806 	br	23724 <__svfscanf_r+0x36c>
   23944:	008000f4 	movhi	r2,3
   23948:	10b29c04 	addi	r2,r2,-13712
   2394c:	d8800415 	stw	r2,16(sp)
   23950:	00800284 	movi	r2,10
   23954:	282b883a 	mov	r21,r5
   23958:	d8800315 	stw	r2,12(sp)
   2395c:	04c000c4 	movi	r19,3
   23960:	003f7006 	br	23724 <__svfscanf_r+0x36c>
   23964:	a08003cc 	andi	r2,r20,15
   23968:	103f241e 	bne	r2,zero,235fc <__svfscanf_r+0x244>
   2396c:	a9800043 	ldbu	r6,1(r21)
   23970:	a5000114 	ori	r20,r20,4
   23974:	282b883a 	mov	r21,r5
   23978:	003ebb06 	br	23468 <__svfscanf_r+0xb0>
   2397c:	008000f4 	movhi	r2,3
   23980:	10b13004 	addi	r2,r2,-15168
   23984:	282b883a 	mov	r21,r5
   23988:	d8800415 	stw	r2,16(sp)
   2398c:	d8000315 	stw	zero,12(sp)
   23990:	04c000c4 	movi	r19,3
   23994:	003f6306 	br	23724 <__svfscanf_r+0x36c>
   23998:	a08003cc 	andi	r2,r20,15
   2399c:	103f171e 	bne	r2,zero,235fc <__svfscanf_r+0x244>
   239a0:	a9800043 	ldbu	r6,1(r21)
   239a4:	30803fcc 	andi	r2,r6,255
   239a8:	10801b18 	cmpnei	r2,r2,108
   239ac:	10043826 	beq	r2,zero,24a90 <__svfscanf_r+0x16d8>
   239b0:	a5000054 	ori	r20,r20,1
   239b4:	282b883a 	mov	r21,r5
   239b8:	003eab06 	br	23468 <__svfscanf_r+0xb0>
   239bc:	d9001284 	addi	r4,sp,74
   239c0:	002a5ac0 	call	2a5ac <__sccl>
   239c4:	102b883a 	mov	r21,r2
   239c8:	a5001014 	ori	r20,r20,64
   239cc:	04c00044 	movi	r19,1
   239d0:	003f5406 	br	23724 <__svfscanf_r+0x36c>
   239d4:	008000f4 	movhi	r2,3
   239d8:	a5000054 	ori	r20,r20,1
   239dc:	10b13004 	addi	r2,r2,-15168
   239e0:	d8800415 	stw	r2,16(sp)
   239e4:	00800284 	movi	r2,10
   239e8:	282b883a 	mov	r21,r5
   239ec:	d8800315 	stw	r2,12(sp)
   239f0:	04c000c4 	movi	r19,3
   239f4:	003f4b06 	br	23724 <__svfscanf_r+0x36c>
   239f8:	b52cb03a 	or	r22,r22,r20
   239fc:	b03eff1e 	bne	r22,zero,235fc <__svfscanf_r+0x244>
   23a00:	a9800043 	ldbu	r6,1(r21)
   23a04:	05000404 	movi	r20,16
   23a08:	282b883a 	mov	r21,r5
   23a0c:	003e9606 	br	23468 <__svfscanf_r+0xb0>
   23a10:	b027883a 	mov	r19,r22
   23a14:	b000011e 	bne	r22,zero,23a1c <__svfscanf_r+0x664>
   23a18:	04c00044 	movi	r19,1
   23a1c:	a080004c 	andi	r2,r20,1
   23a20:	a500040c 	andi	r20,r20,16
   23a24:	10030f1e 	bne	r2,zero,24664 <__svfscanf_r+0x12ac>
   23a28:	a002cc1e 	bne	r20,zero,2455c <__svfscanf_r+0x11a4>
   23a2c:	dd000217 	ldw	r20,8(sp)
   23a30:	df000015 	stw	fp,0(sp)
   23a34:	980f883a 	mov	r7,r19
   23a38:	a1400017 	ldw	r5,0(r20)
   23a3c:	01800044 	movi	r6,1
   23a40:	8009883a 	mov	r4,r16
   23a44:	0026ecc0 	call	26ecc <_fread_r>
   23a48:	a0c00104 	addi	r3,r20,4
   23a4c:	103f2026 	beq	r2,zero,236d0 <__svfscanf_r+0x318>
   23a50:	90a5883a 	add	r18,r18,r2
   23a54:	d8800117 	ldw	r2,4(sp)
   23a58:	d8c00215 	stw	r3,8(sp)
   23a5c:	10800044 	addi	r2,r2,1
   23a60:	d8800115 	stw	r2,4(sp)
   23a64:	003f0606 	br	23680 <__svfscanf_r+0x2c8>
   23a68:	b0bfffc4 	addi	r2,r22,-1
   23a6c:	10805770 	cmpltui	r2,r2,349
   23a70:	10023d1e 	bne	r2,zero,24368 <__svfscanf_r+0xfb0>
   23a74:	b0bfa8c4 	addi	r2,r22,-349
   23a78:	d8800515 	stw	r2,20(sp)
   23a7c:	05805744 	movi	r22,349
   23a80:	d9800317 	ldw	r6,12(sp)
   23a84:	a4c36014 	ori	r19,r20,3456
   23a88:	ddc05284 	addi	r23,sp,330
   23a8c:	0029883a 	mov	r20,zero
   23a90:	e0800017 	ldw	r2,0(fp)
   23a94:	10c00003 	ldbu	r3,0(r2)
   23a98:	18bff544 	addi	r2,r3,-43
   23a9c:	10803fcc 	andi	r2,r2,255
   23aa0:	114013a8 	cmpgeui	r5,r2,78
   23aa4:	2800621e 	bne	r5,zero,23c30 <__svfscanf_r+0x878>
   23aa8:	100490ba 	slli	r2,r2,2
   23aac:	014000b4 	movhi	r5,2
   23ab0:	114b883a 	add	r5,r2,r5
   23ab4:	288eaf17 	ldw	r2,15036(r5)
   23ab8:	1000683a 	jmp	r2
   23abc:	00023cf8 	rdprs	zero,zero,2291
   23ac0:	00023c30 	cmpltui	zero,zero,2288
   23ac4:	00023cf8 	rdprs	zero,zero,2291
   23ac8:	00023c30 	cmpltui	zero,zero,2288
   23acc:	00023c30 	cmpltui	zero,zero,2288
   23ad0:	00023d28 	cmpgeui	zero,zero,2292
   23ad4:	00023cbc 	xorhi	zero,zero,2290
   23ad8:	00023cbc 	xorhi	zero,zero,2290
   23adc:	00023cbc 	xorhi	zero,zero,2290
   23ae0:	00023cbc 	xorhi	zero,zero,2290
   23ae4:	00023cbc 	xorhi	zero,zero,2290
   23ae8:	00023cbc 	xorhi	zero,zero,2290
   23aec:	00023cbc 	xorhi	zero,zero,2290
   23af0:	00023d0c 	andi	zero,zero,2292
   23af4:	00023d0c 	andi	zero,zero,2292
   23af8:	00023c30 	cmpltui	zero,zero,2288
   23afc:	00023c30 	cmpltui	zero,zero,2288
   23b00:	00023c30 	cmpltui	zero,zero,2288
   23b04:	00023c30 	cmpltui	zero,zero,2288
   23b08:	00023c30 	cmpltui	zero,zero,2288
   23b0c:	00023c30 	cmpltui	zero,zero,2288
   23b10:	00023c30 	cmpltui	zero,zero,2288
   23b14:	00023bf4 	movhi	zero,2287
   23b18:	00023bf4 	movhi	zero,2287
   23b1c:	00023bf4 	movhi	zero,2287
   23b20:	00023bf4 	movhi	zero,2287
   23b24:	00023bf4 	movhi	zero,2287
   23b28:	00023bf4 	movhi	zero,2287
   23b2c:	00023c30 	cmpltui	zero,zero,2288
   23b30:	00023c30 	cmpltui	zero,zero,2288
   23b34:	00023c30 	cmpltui	zero,zero,2288
   23b38:	00023c30 	cmpltui	zero,zero,2288
   23b3c:	00023c30 	cmpltui	zero,zero,2288
   23b40:	00023c30 	cmpltui	zero,zero,2288
   23b44:	00023c30 	cmpltui	zero,zero,2288
   23b48:	00023c30 	cmpltui	zero,zero,2288
   23b4c:	00023c30 	cmpltui	zero,zero,2288
   23b50:	00023c30 	cmpltui	zero,zero,2288
   23b54:	00023c30 	cmpltui	zero,zero,2288
   23b58:	00023c30 	cmpltui	zero,zero,2288
   23b5c:	00023c30 	cmpltui	zero,zero,2288
   23b60:	00023c30 	cmpltui	zero,zero,2288
   23b64:	00023c30 	cmpltui	zero,zero,2288
   23b68:	00023c30 	cmpltui	zero,zero,2288
   23b6c:	00023c30 	cmpltui	zero,zero,2288
   23b70:	00023cd8 	cmpnei	zero,zero,2291
   23b74:	00023c30 	cmpltui	zero,zero,2288
   23b78:	00023c30 	cmpltui	zero,zero,2288
   23b7c:	00023c30 	cmpltui	zero,zero,2288
   23b80:	00023c30 	cmpltui	zero,zero,2288
   23b84:	00023c30 	cmpltui	zero,zero,2288
   23b88:	00023c30 	cmpltui	zero,zero,2288
   23b8c:	00023c30 	cmpltui	zero,zero,2288
   23b90:	00023c30 	cmpltui	zero,zero,2288
   23b94:	00023bf4 	movhi	zero,2287
   23b98:	00023bf4 	movhi	zero,2287
   23b9c:	00023bf4 	movhi	zero,2287
   23ba0:	00023bf4 	movhi	zero,2287
   23ba4:	00023bf4 	movhi	zero,2287
   23ba8:	00023bf4 	movhi	zero,2287
   23bac:	00023c30 	cmpltui	zero,zero,2288
   23bb0:	00023c30 	cmpltui	zero,zero,2288
   23bb4:	00023c30 	cmpltui	zero,zero,2288
   23bb8:	00023c30 	cmpltui	zero,zero,2288
   23bbc:	00023c30 	cmpltui	zero,zero,2288
   23bc0:	00023c30 	cmpltui	zero,zero,2288
   23bc4:	00023c30 	cmpltui	zero,zero,2288
   23bc8:	00023c30 	cmpltui	zero,zero,2288
   23bcc:	00023c30 	cmpltui	zero,zero,2288
   23bd0:	00023c30 	cmpltui	zero,zero,2288
   23bd4:	00023c30 	cmpltui	zero,zero,2288
   23bd8:	00023c30 	cmpltui	zero,zero,2288
   23bdc:	00023c30 	cmpltui	zero,zero,2288
   23be0:	00023c30 	cmpltui	zero,zero,2288
   23be4:	00023c30 	cmpltui	zero,zero,2288
   23be8:	00023c30 	cmpltui	zero,zero,2288
   23bec:	00023c30 	cmpltui	zero,zero,2288
   23bf0:	00023cd8 	cmpnei	zero,zero,2291
   23bf4:	308002d0 	cmplti	r2,r6,11
   23bf8:	10000d1e 	bne	r2,zero,23c30 <__svfscanf_r+0x878>
   23bfc:	00bd1fc4 	movi	r2,-2945
   23c00:	98a6703a 	and	r19,r19,r2
   23c04:	b8c00005 	stb	r3,0(r23)
   23c08:	bdc00044 	addi	r23,r23,1
   23c0c:	e0800117 	ldw	r2,4(fp)
   23c10:	10bfffc4 	addi	r2,r2,-1
   23c14:	e0800115 	stw	r2,4(fp)
   23c18:	00804d0e 	bge	zero,r2,23d50 <__svfscanf_r+0x998>
   23c1c:	e0800017 	ldw	r2,0(fp)
   23c20:	10800044 	addi	r2,r2,1
   23c24:	e0800015 	stw	r2,0(fp)
   23c28:	b5bfffc4 	addi	r22,r22,-1
   23c2c:	b03f981e 	bne	r22,zero,23a90 <__svfscanf_r+0x6d8>
   23c30:	d9800315 	stw	r6,12(sp)
   23c34:	9880400c 	andi	r2,r19,256
   23c38:	10000426 	beq	r2,zero,23c4c <__svfscanf_r+0x894>
   23c3c:	d8805284 	addi	r2,sp,330
   23c40:	15c38736 	bltu	r2,r23,24a60 <__svfscanf_r+0x16a8>
   23c44:	d8805284 	addi	r2,sp,330
   23c48:	b8be6c26 	beq	r23,r2,235fc <__svfscanf_r+0x244>
   23c4c:	9880040c 	andi	r2,r19,16
   23c50:	1000111e 	bne	r2,zero,23c98 <__svfscanf_r+0x8e0>
   23c54:	d9c00317 	ldw	r7,12(sp)
   23c58:	d8800417 	ldw	r2,16(sp)
   23c5c:	8009883a 	mov	r4,r16
   23c60:	b8000005 	stb	zero,0(r23)
   23c64:	000d883a 	mov	r6,zero
   23c68:	d9405284 	addi	r5,sp,330
   23c6c:	103ee83a 	callr	r2
   23c70:	d9000217 	ldw	r4,8(sp)
   23c74:	98c0080c 	andi	r3,r19,32
   23c78:	25800104 	addi	r22,r4,4
   23c7c:	1802f826 	beq	r3,zero,24860 <__svfscanf_r+0x14a8>
   23c80:	20c00017 	ldw	r3,0(r4)
   23c84:	18800015 	stw	r2,0(r3)
   23c88:	d8800117 	ldw	r2,4(sp)
   23c8c:	dd800215 	stw	r22,8(sp)
   23c90:	10800044 	addi	r2,r2,1
   23c94:	d8800115 	stw	r2,4(sp)
   23c98:	d8805284 	addi	r2,sp,330
   23c9c:	b8afc83a 	sub	r23,r23,r2
   23ca0:	a8800003 	ldbu	r2,0(r21)
   23ca4:	bd2f883a 	add	r23,r23,r20
   23ca8:	95e5883a 	add	r18,r18,r23
   23cac:	d8800d15 	stw	r2,52(sp)
   23cb0:	ad400044 	addi	r21,r21,1
   23cb4:	103de21e 	bne	r2,zero,23440 <__svfscanf_r+0x88>
   23cb8:	003e5006 	br	235fc <__svfscanf_r+0x244>
   23cbc:	318d883a 	add	r6,r6,r6
   23cc0:	00800134 	movhi	r2,4
   23cc4:	3085883a 	add	r2,r6,r2
   23cc8:	11a0908f 	ldh	r6,-32190(r2)
   23ccc:	00bd1fc4 	movi	r2,-2945
   23cd0:	98a6703a 	and	r19,r19,r2
   23cd4:	003fcb06 	br	23c04 <__svfscanf_r+0x84c>
   23cd8:	9881800c 	andi	r2,r19,1536
   23cdc:	10808018 	cmpnei	r2,r2,512
   23ce0:	103fd31e 	bne	r2,zero,23c30 <__svfscanf_r+0x878>
   23ce4:	00bf7fc4 	movi	r2,-513
   23ce8:	98a6703a 	and	r19,r19,r2
   23cec:	9cc14014 	ori	r19,r19,1280
   23cf0:	01800404 	movi	r6,16
   23cf4:	003fc306 	br	23c04 <__svfscanf_r+0x84c>
   23cf8:	9880200c 	andi	r2,r19,128
   23cfc:	103fcc26 	beq	r2,zero,23c30 <__svfscanf_r+0x878>
   23d00:	00bfdfc4 	movi	r2,-129
   23d04:	98a6703a 	and	r19,r19,r2
   23d08:	003fbe06 	br	23c04 <__svfscanf_r+0x84c>
   23d0c:	318d883a 	add	r6,r6,r6
   23d10:	00800134 	movhi	r2,4
   23d14:	3085883a 	add	r2,r6,r2
   23d18:	11a0908f 	ldh	r6,-32190(r2)
   23d1c:	30800250 	cmplti	r2,r6,9
   23d20:	103fb626 	beq	r2,zero,23bfc <__svfscanf_r+0x844>
   23d24:	003fc206 	br	23c30 <__svfscanf_r+0x878>
   23d28:	9882000c 	andi	r2,r19,2048
   23d2c:	103fb526 	beq	r2,zero,23c04 <__svfscanf_r+0x84c>
   23d30:	3000021e 	bne	r6,zero,23d3c <__svfscanf_r+0x984>
   23d34:	9cc08014 	ori	r19,r19,512
   23d38:	01800204 	movi	r6,8
   23d3c:	9881000c 	andi	r2,r19,1024
   23d40:	1002be26 	beq	r2,zero,2483c <__svfscanf_r+0x1484>
   23d44:	00be9fc4 	movi	r2,-1409
   23d48:	98a6703a 	and	r19,r19,r2
   23d4c:	003fad06 	br	23c04 <__svfscanf_r+0x84c>
   23d50:	e00b883a 	mov	r5,fp
   23d54:	8009883a 	mov	r4,r16
   23d58:	d9800315 	stw	r6,12(sp)
   23d5c:	002a3880 	call	2a388 <__srefill_r>
   23d60:	d9800317 	ldw	r6,12(sp)
   23d64:	103fb026 	beq	r2,zero,23c28 <__svfscanf_r+0x870>
   23d68:	003fb106 	br	23c30 <__svfscanf_r+0x878>
   23d6c:	b000011e 	bne	r22,zero,23d74 <__svfscanf_r+0x9bc>
   23d70:	05bfffc4 	movi	r22,-1
   23d74:	a080004c 	andi	r2,r20,1
   23d78:	a500040c 	andi	r20,r20,16
   23d7c:	10026e1e 	bne	r2,zero,24738 <__svfscanf_r+0x1380>
   23d80:	e1000017 	ldw	r4,0(fp)
   23d84:	d8c00b04 	addi	r3,sp,44
   23d88:	20800003 	ldbu	r2,0(r4)
   23d8c:	10809f04 	addi	r2,r2,636
   23d90:	10c5883a 	add	r2,r2,r3
   23d94:	10bf6883 	ldbu	r2,-606(r2)
   23d98:	10803fcc 	andi	r2,r2,255
   23d9c:	1080201c 	xori	r2,r2,128
   23da0:	10bfe004 	addi	r2,r2,-128
   23da4:	a001b826 	beq	r20,zero,24488 <__svfscanf_r+0x10d0>
   23da8:	103e1426 	beq	r2,zero,235fc <__svfscanf_r+0x244>
   23dac:	e0800117 	ldw	r2,4(fp)
   23db0:	21000044 	addi	r4,r4,1
   23db4:	e1000015 	stw	r4,0(fp)
   23db8:	10bfffc4 	addi	r2,r2,-1
   23dbc:	e0800115 	stw	r2,4(fp)
   23dc0:	b1000060 	cmpeqi	r4,r22,1
   23dc4:	20000f1e 	bne	r4,zero,23e04 <__svfscanf_r+0xa4c>
   23dc8:	0080110e 	bge	zero,r2,23e10 <__svfscanf_r+0xa58>
   23dcc:	e0800017 	ldw	r2,0(fp)
   23dd0:	d9000b04 	addi	r4,sp,44
   23dd4:	10c00003 	ldbu	r3,0(r2)
   23dd8:	10800044 	addi	r2,r2,1
   23ddc:	18c09f04 	addi	r3,r3,636
   23de0:	1907883a 	add	r3,r3,r4
   23de4:	18ff6887 	ldb	r3,-606(r3)
   23de8:	18000626 	beq	r3,zero,23e04 <__svfscanf_r+0xa4c>
   23dec:	e0c00117 	ldw	r3,4(fp)
   23df0:	e0800015 	stw	r2,0(fp)
   23df4:	9cc00044 	addi	r19,r19,1
   23df8:	18bfffc4 	addi	r2,r3,-1
   23dfc:	e0800115 	stw	r2,4(fp)
   23e00:	b4fff11e 	bne	r22,r19,23dc8 <__svfscanf_r+0xa10>
   23e04:	94d3883a 	add	r9,r18,r19
   23e08:	4ce5883a 	add	r18,r9,r19
   23e0c:	003e1c06 	br	23680 <__svfscanf_r+0x2c8>
   23e10:	e00b883a 	mov	r5,fp
   23e14:	8009883a 	mov	r4,r16
   23e18:	002a3880 	call	2a388 <__srefill_r>
   23e1c:	103feb26 	beq	r2,zero,23dcc <__svfscanf_r+0xa14>
   23e20:	003ff806 	br	23e04 <__svfscanf_r+0xa4c>
   23e24:	8009883a 	mov	r4,r16
   23e28:	0027ca00 	call	27ca0 <_localeconv_r>
   23e2c:	10800017 	ldw	r2,0(r2)
   23e30:	b13fffc4 	addi	r4,r22,-1
   23e34:	21005770 	cmpltui	r4,r4,349
   23e38:	d8800615 	stw	r2,24(sp)
   23e3c:	2001481e 	bne	r4,zero,24360 <__svfscanf_r+0xfa8>
   23e40:	b0bfa8c4 	addi	r2,r22,-349
   23e44:	d8800a15 	stw	r2,40(sp)
   23e48:	05805744 	movi	r22,349
   23e4c:	0027883a 	mov	r19,zero
   23e50:	0005883a 	mov	r2,zero
   23e54:	0007883a 	mov	r3,zero
   23e58:	dc400715 	stw	r17,28(sp)
   23e5c:	dd400815 	stw	r21,32(sp)
   23e60:	8023883a 	mov	r17,r16
   23e64:	a501e014 	ori	r20,r20,1920
   23e68:	9821883a 	mov	r16,r19
   23e6c:	d8000b15 	stw	zero,44(sp)
   23e70:	b027883a 	mov	r19,r22
   23e74:	d8000915 	stw	zero,36(sp)
   23e78:	d8000515 	stw	zero,20(sp)
   23e7c:	ddc05284 	addi	r23,sp,330
   23e80:	102d883a 	mov	r22,r2
   23e84:	182b883a 	mov	r21,r3
   23e88:	e0800017 	ldw	r2,0(fp)
   23e8c:	11400003 	ldbu	r5,0(r2)
   23e90:	28bff544 	addi	r2,r5,-43
   23e94:	10803fcc 	andi	r2,r2,255
   23e98:	118013e8 	cmpgeui	r6,r2,79
   23e9c:	3000541e 	bne	r6,zero,23ff0 <__svfscanf_r+0xc38>
   23ea0:	100490ba 	slli	r2,r2,2
   23ea4:	018000b4 	movhi	r6,2
   23ea8:	118d883a 	add	r6,r2,r6
   23eac:	308fad17 	ldw	r2,16052(r6)
   23eb0:	1000683a 	jmp	r2
   23eb4:	00024148 	cmpgei	zero,zero,2309
   23eb8:	00023ff0 	cmpltui	zero,zero,2303
   23ebc:	00024148 	cmpgei	zero,zero,2309
   23ec0:	00023ff0 	cmpltui	zero,zero,2303
   23ec4:	00023ff0 	cmpltui	zero,zero,2303
   23ec8:	000242e8 	cmpgeui	zero,zero,2315
   23ecc:	000240e0 	cmpeqi	zero,zero,2307
   23ed0:	000240e0 	cmpeqi	zero,zero,2307
   23ed4:	000240e0 	cmpeqi	zero,zero,2307
   23ed8:	000240e0 	cmpeqi	zero,zero,2307
   23edc:	000240e0 	cmpeqi	zero,zero,2307
   23ee0:	000240e0 	cmpeqi	zero,zero,2307
   23ee4:	000240e0 	cmpeqi	zero,zero,2307
   23ee8:	000240e0 	cmpeqi	zero,zero,2307
   23eec:	000240e0 	cmpeqi	zero,zero,2307
   23ef0:	00023ff0 	cmpltui	zero,zero,2303
   23ef4:	00023ff0 	cmpltui	zero,zero,2303
   23ef8:	00023ff0 	cmpltui	zero,zero,2303
   23efc:	00023ff0 	cmpltui	zero,zero,2303
   23f00:	00023ff0 	cmpltui	zero,zero,2303
   23f04:	00023ff0 	cmpltui	zero,zero,2303
   23f08:	00023ff0 	cmpltui	zero,zero,2303
   23f0c:	00024138 	rdprs	zero,zero,2308
   23f10:	00023ff0 	cmpltui	zero,zero,2303
   23f14:	00023ff0 	cmpltui	zero,zero,2303
   23f18:	00023ff0 	cmpltui	zero,zero,2303
   23f1c:	000242a4 	muli	zero,zero,2314
   23f20:	00024288 	cmpgei	zero,zero,2314
   23f24:	00023ff0 	cmpltui	zero,zero,2303
   23f28:	00023ff0 	cmpltui	zero,zero,2303
   23f2c:	00024194 	movui	zero,2310
   23f30:	00023ff0 	cmpltui	zero,zero,2303
   23f34:	00023ff0 	cmpltui	zero,zero,2303
   23f38:	00023ff0 	cmpltui	zero,zero,2303
   23f3c:	00023ff0 	cmpltui	zero,zero,2303
   23f40:	0002415c 	xori	zero,zero,2309
   23f44:	00023ff0 	cmpltui	zero,zero,2303
   23f48:	00023ff0 	cmpltui	zero,zero,2303
   23f4c:	00023ff0 	cmpltui	zero,zero,2303
   23f50:	00023ff0 	cmpltui	zero,zero,2303
   23f54:	00023ff0 	cmpltui	zero,zero,2303
   23f58:	0002411c 	xori	zero,zero,2308
   23f5c:	00023ff0 	cmpltui	zero,zero,2303
   23f60:	00023ff0 	cmpltui	zero,zero,2303
   23f64:	00023ff0 	cmpltui	zero,zero,2303
   23f68:	00023ff0 	cmpltui	zero,zero,2303
   23f6c:	00024100 	call	2410 <__reset-0x1dbf0>
   23f70:	00023ff0 	cmpltui	zero,zero,2303
   23f74:	00023ff0 	cmpltui	zero,zero,2303
   23f78:	00023ff0 	cmpltui	zero,zero,2303
   23f7c:	00023ff0 	cmpltui	zero,zero,2303
   23f80:	00023ff0 	cmpltui	zero,zero,2303
   23f84:	00023ff0 	cmpltui	zero,zero,2303
   23f88:	00023ff0 	cmpltui	zero,zero,2303
   23f8c:	00024138 	rdprs	zero,zero,2308
   23f90:	00023ff0 	cmpltui	zero,zero,2303
   23f94:	00023ff0 	cmpltui	zero,zero,2303
   23f98:	00023ff0 	cmpltui	zero,zero,2303
   23f9c:	000242a4 	muli	zero,zero,2314
   23fa0:	00024288 	cmpgei	zero,zero,2314
   23fa4:	00023ff0 	cmpltui	zero,zero,2303
   23fa8:	00023ff0 	cmpltui	zero,zero,2303
   23fac:	00024194 	movui	zero,2310
   23fb0:	00023ff0 	cmpltui	zero,zero,2303
   23fb4:	00023ff0 	cmpltui	zero,zero,2303
   23fb8:	00023ff0 	cmpltui	zero,zero,2303
   23fbc:	00023ff0 	cmpltui	zero,zero,2303
   23fc0:	0002415c 	xori	zero,zero,2309
   23fc4:	00023ff0 	cmpltui	zero,zero,2303
   23fc8:	00023ff0 	cmpltui	zero,zero,2303
   23fcc:	00023ff0 	cmpltui	zero,zero,2303
   23fd0:	00023ff0 	cmpltui	zero,zero,2303
   23fd4:	00023ff0 	cmpltui	zero,zero,2303
   23fd8:	0002411c 	xori	zero,zero,2308
   23fdc:	00023ff0 	cmpltui	zero,zero,2303
   23fe0:	00023ff0 	cmpltui	zero,zero,2303
   23fe4:	00023ff0 	cmpltui	zero,zero,2303
   23fe8:	00023ff0 	cmpltui	zero,zero,2303
   23fec:	00024100 	call	2410 <__reset-0x1dbf0>
   23ff0:	d8800617 	ldw	r2,24(sp)
   23ff4:	29803fcc 	andi	r6,r5,255
   23ff8:	10800003 	ldbu	r2,0(r2)
   23ffc:	3080111e 	bne	r6,r2,24044 <__svfscanf_r+0xc8c>
   24000:	a080800c 	andi	r2,r20,512
   24004:	10000f26 	beq	r2,zero,24044 <__svfscanf_r+0xc8c>
   24008:	00bf5fc4 	movi	r2,-641
   2400c:	a0a8703a 	and	r20,r20,r2
   24010:	dd800515 	stw	r22,20(sp)
   24014:	b9400005 	stb	r5,0(r23)
   24018:	9cffffc4 	addi	r19,r19,-1
   2401c:	bdc00044 	addi	r23,r23,1
   24020:	e0800117 	ldw	r2,4(fp)
   24024:	94800044 	addi	r18,r18,1
   24028:	10bfffc4 	addi	r2,r2,-1
   2402c:	e0800115 	stw	r2,4(fp)
   24030:	0080b60e 	bge	zero,r2,2430c <__svfscanf_r+0xf54>
   24034:	e0800017 	ldw	r2,0(fp)
   24038:	10800044 	addi	r2,r2,1
   2403c:	e0800015 	stw	r2,0(fp)
   24040:	983f911e 	bne	r19,zero,23e88 <__svfscanf_r+0xad0>
   24044:	dd800615 	stw	r22,24(sp)
   24048:	d8800617 	ldw	r2,24(sp)
   2404c:	8027883a 	mov	r19,r16
   24050:	a807883a 	mov	r3,r21
   24054:	8821883a 	mov	r16,r17
   24058:	dd400817 	ldw	r21,32(sp)
   2405c:	dc400717 	ldw	r17,28(sp)
   24060:	1000c91e 	bne	r2,zero,24388 <__svfscanf_r+0xfd0>
   24064:	19bfffc4 	addi	r6,r3,-1
   24068:	318000a8 	cmpgeui	r6,r6,2
   2406c:	3002cf26 	beq	r6,zero,24bac <__svfscanf_r+0x17f4>
   24070:	98c03fcc 	andi	r3,r19,255
   24074:	18c0201c 	xori	r3,r3,128
   24078:	18ffe004 	addi	r3,r3,-128
   2407c:	18bfffc4 	addi	r2,r3,-1
   24080:	108001e8 	cmpgeui	r2,r2,7
   24084:	1000531e 	bne	r2,zero,241d4 <__svfscanf_r+0xe1c>
   24088:	188000d0 	cmplti	r2,r3,3
   2408c:	1002ea1e 	bne	r2,zero,24c38 <__svfscanf_r+0x1880>
   24090:	18c000d8 	cmpnei	r3,r3,3
   24094:	b82d883a 	mov	r22,r23
   24098:	18004e26 	beq	r3,zero,241d4 <__svfscanf_r+0xe1c>
   2409c:	b17fffc7 	ldb	r5,-1(r22)
   240a0:	e00d883a 	mov	r6,fp
   240a4:	8009883a 	mov	r4,r16
   240a8:	b5bfffc4 	addi	r22,r22,-1
   240ac:	002ee740 	call	2ee74 <_ungetc_r>
   240b0:	b4c5883a 	add	r2,r22,r19
   240b4:	15c5c83a 	sub	r2,r2,r23
   240b8:	10803fcc 	andi	r2,r2,255
   240bc:	1080201c 	xori	r2,r2,128
   240c0:	10bfe004 	addi	r2,r2,-128
   240c4:	b487883a 	add	r3,r22,r18
   240c8:	10800108 	cmpgei	r2,r2,4
   240cc:	1dc7c83a 	sub	r3,r3,r23
   240d0:	103ff21e 	bne	r2,zero,2409c <__svfscanf_r+0xce4>
   240d4:	1825883a 	mov	r18,r3
   240d8:	b02f883a 	mov	r23,r22
   240dc:	00003d06 	br	241d4 <__svfscanf_r+0xe1c>
   240e0:	80803fcc 	andi	r2,r16,255
   240e4:	1080201c 	xori	r2,r2,128
   240e8:	10bfe004 	addi	r2,r2,-128
   240ec:	a885883a 	add	r2,r21,r2
   240f0:	103fd41e 	bne	r2,zero,24044 <__svfscanf_r+0xc8c>
   240f4:	00bf9fc4 	movi	r2,-385
   240f8:	a0a8703a 	and	r20,r20,r2
   240fc:	003fc506 	br	24014 <__svfscanf_r+0xc5c>
   24100:	80803fcc 	andi	r2,r16,255
   24104:	1080201c 	xori	r2,r2,128
   24108:	10bfe004 	addi	r2,r2,-128
   2410c:	108001e0 	cmpeqi	r2,r2,7
   24110:	103fcc26 	beq	r2,zero,24044 <__svfscanf_r+0xc8c>
   24114:	04000204 	movi	r16,8
   24118:	003fbe06 	br	24014 <__svfscanf_r+0xc5c>
   2411c:	80803fcc 	andi	r2,r16,255
   24120:	1080201c 	xori	r2,r2,128
   24124:	10bfe004 	addi	r2,r2,-128
   24128:	108001a0 	cmpeqi	r2,r2,6
   2412c:	103fc526 	beq	r2,zero,24044 <__svfscanf_r+0xc8c>
   24130:	040001c4 	movi	r16,7
   24134:	003fb706 	br	24014 <__svfscanf_r+0xc5c>
   24138:	a8800060 	cmpeqi	r2,r21,1
   2413c:	103fc126 	beq	r2,zero,24044 <__svfscanf_r+0xc8c>
   24140:	05400084 	movi	r21,2
   24144:	003fb306 	br	24014 <__svfscanf_r+0xc5c>
   24148:	a080200c 	andi	r2,r20,128
   2414c:	103fbd26 	beq	r2,zero,24044 <__svfscanf_r+0xc8c>
   24150:	00bfdfc4 	movi	r2,-129
   24154:	a0a8703a 	and	r20,r20,r2
   24158:	003fae06 	br	24014 <__svfscanf_r+0xc5c>
   2415c:	a800761e 	bne	r21,zero,24338 <__svfscanf_r+0xf80>
   24160:	b000031e 	bne	r22,zero,24170 <__svfscanf_r+0xdb8>
   24164:	a081c00c 	andi	r2,r20,1792
   24168:	1081c018 	cmpnei	r2,r2,1792
   2416c:	10025026 	beq	r2,zero,24ab0 <__svfscanf_r+0x16f8>
   24170:	80803fcc 	andi	r2,r16,255
   24174:	1080201c 	xori	r2,r2,128
   24178:	10bfe004 	addi	r2,r2,-128
   2417c:	11800060 	cmpeqi	r6,r2,1
   24180:	3000021e 	bne	r6,zero,2418c <__svfscanf_r+0xdd4>
   24184:	10800118 	cmpnei	r2,r2,4
   24188:	103fae1e 	bne	r2,zero,24044 <__svfscanf_r+0xc8c>
   2418c:	84000044 	addi	r16,r16,1
   24190:	003fa006 	br	24014 <__svfscanf_r+0xc5c>
   24194:	80803fcc 	andi	r2,r16,255
   24198:	1080201c 	xori	r2,r2,128
   2419c:	10bfe004 	addi	r2,r2,-128
   241a0:	1000601e 	bne	r2,zero,24324 <__svfscanf_r+0xf6c>
   241a4:	b000721e 	bne	r22,zero,24370 <__svfscanf_r+0xfb8>
   241a8:	a081c00c 	andi	r2,r20,1792
   241ac:	1081c018 	cmpnei	r2,r2,1792
   241b0:	10023b26 	beq	r2,zero,24aa0 <__svfscanf_r+0x16e8>
   241b4:	a807883a 	mov	r3,r21
   241b8:	18bfffc4 	addi	r2,r3,-1
   241bc:	dd800615 	stw	r22,24(sp)
   241c0:	108000b0 	cmpltui	r2,r2,2
   241c4:	8821883a 	mov	r16,r17
   241c8:	dd400817 	ldw	r21,32(sp)
   241cc:	dc400717 	ldw	r17,28(sp)
   241d0:	1002761e 	bne	r2,zero,24bac <__svfscanf_r+0x17f4>
   241d4:	a080400c 	andi	r2,r20,256
   241d8:	10000e26 	beq	r2,zero,24214 <__svfscanf_r+0xe5c>
   241dc:	a081000c 	andi	r2,r20,1024
   241e0:	10027e1e 	bne	r2,zero,24bdc <__svfscanf_r+0x1824>
   241e4:	b97fffc7 	ldb	r5,-1(r23)
   241e8:	bdbfffc4 	addi	r22,r23,-1
   241ec:	94ffffc4 	addi	r19,r18,-1
   241f0:	28801960 	cmpeqi	r2,r5,101
   241f4:	1000021e 	bne	r2,zero,24200 <__svfscanf_r+0xe48>
   241f8:	28801160 	cmpeqi	r2,r5,69
   241fc:	1001c426 	beq	r2,zero,24910 <__svfscanf_r+0x1558>
   24200:	e00d883a 	mov	r6,fp
   24204:	8009883a 	mov	r4,r16
   24208:	002ee740 	call	2ee74 <_ungetc_r>
   2420c:	9825883a 	mov	r18,r19
   24210:	b02f883a 	mov	r23,r22
   24214:	a080040c 	andi	r2,r20,16
   24218:	103d191e 	bne	r2,zero,23680 <__svfscanf_r+0x2c8>
   2421c:	a081800c 	andi	r2,r20,1536
   24220:	b8000005 	stb	zero,0(r23)
   24224:	10810018 	cmpnei	r2,r2,1024
   24228:	10021326 	beq	r2,zero,24a78 <__svfscanf_r+0x16c0>
   2422c:	d8800917 	ldw	r2,36(sp)
   24230:	1001e81e 	bne	r2,zero,249d4 <__svfscanf_r+0x161c>
   24234:	8009883a 	mov	r4,r16
   24238:	000d883a 	mov	r6,zero
   2423c:	d9405284 	addi	r5,sp,330
   24240:	002bfd00 	call	2bfd0 <_strtod_r>
   24244:	1027883a 	mov	r19,r2
   24248:	d8800217 	ldw	r2,8(sp)
   2424c:	a100004c 	andi	r4,r20,1
   24250:	15800104 	addi	r22,r2,4
   24254:	20019826 	beq	r4,zero,248b8 <__svfscanf_r+0x1500>
   24258:	10800017 	ldw	r2,0(r2)
   2425c:	14c00015 	stw	r19,0(r2)
   24260:	10c00115 	stw	r3,4(r2)
   24264:	d8800117 	ldw	r2,4(sp)
   24268:	dd800215 	stw	r22,8(sp)
   2426c:	ad400044 	addi	r21,r21,1
   24270:	10800044 	addi	r2,r2,1
   24274:	d8800115 	stw	r2,4(sp)
   24278:	a8bfffc3 	ldbu	r2,-1(r21)
   2427c:	d8800d15 	stw	r2,52(sp)
   24280:	103c6f1e 	bne	r2,zero,23440 <__svfscanf_r+0x88>
   24284:	003cdd06 	br	235fc <__svfscanf_r+0x244>
   24288:	80803fcc 	andi	r2,r16,255
   2428c:	1080201c 	xori	r2,r2,128
   24290:	10bfe004 	addi	r2,r2,-128
   24294:	108000a0 	cmpeqi	r2,r2,2
   24298:	103f6a26 	beq	r2,zero,24044 <__svfscanf_r+0xc8c>
   2429c:	040000c4 	movi	r16,3
   242a0:	003f5c06 	br	24014 <__svfscanf_r+0xc5c>
   242a4:	a081400c 	andi	r2,r20,1280
   242a8:	10810020 	cmpeqi	r2,r2,1024
   242ac:	1000031e 	bne	r2,zero,242bc <__svfscanf_r+0xf04>
   242b0:	a081000c 	andi	r2,r20,1024
   242b4:	103f6326 	beq	r2,zero,24044 <__svfscanf_r+0xc8c>
   242b8:	b0022b26 	beq	r22,zero,24b68 <__svfscanf_r+0x17b0>
   242bc:	a080800c 	andi	r2,r20,512
   242c0:	1000041e 	bne	r2,zero,242d4 <__svfscanf_r+0xf1c>
   242c4:	d8800517 	ldw	r2,20(sp)
   242c8:	ddc00b15 	stw	r23,44(sp)
   242cc:	b085c83a 	sub	r2,r22,r2
   242d0:	d8800915 	stw	r2,36(sp)
   242d4:	00be1fc4 	movi	r2,-1921
   242d8:	a0a8703a 	and	r20,r20,r2
   242dc:	a5006014 	ori	r20,r20,384
   242e0:	002d883a 	mov	r22,zero
   242e4:	003f4b06 	br	24014 <__svfscanf_r+0xc5c>
   242e8:	a080400c 	andi	r2,r20,256
   242ec:	103f7c26 	beq	r2,zero,240e0 <__svfscanf_r+0xd28>
   242f0:	00bfdfc4 	movi	r2,-129
   242f4:	a0a8703a 	and	r20,r20,r2
   242f8:	d8800a17 	ldw	r2,40(sp)
   242fc:	b5800044 	addi	r22,r22,1
   24300:	1000921e 	bne	r2,zero,2454c <__svfscanf_r+0x1194>
   24304:	9cffffc4 	addi	r19,r19,-1
   24308:	003f4506 	br	24020 <__svfscanf_r+0xc68>
   2430c:	e00b883a 	mov	r5,fp
   24310:	8809883a 	mov	r4,r17
   24314:	002a3880 	call	2a388 <__srefill_r>
   24318:	103f4a1e 	bne	r2,zero,24044 <__svfscanf_r+0xc8c>
   2431c:	983eda1e 	bne	r19,zero,23e88 <__svfscanf_r+0xad0>
   24320:	003f4806 	br	24044 <__svfscanf_r+0xc8c>
   24324:	118000e0 	cmpeqi	r6,r2,3
   24328:	303f981e 	bne	r6,zero,2418c <__svfscanf_r+0xdd4>
   2432c:	10800158 	cmpnei	r2,r2,5
   24330:	103f9626 	beq	r2,zero,2418c <__svfscanf_r+0xdd4>
   24334:	003f4306 	br	24044 <__svfscanf_r+0xc8c>
   24338:	a88000a0 	cmpeqi	r2,r21,2
   2433c:	103f8c26 	beq	r2,zero,24170 <__svfscanf_r+0xdb8>
   24340:	054000c4 	movi	r21,3
   24344:	003f3306 	br	24014 <__svfscanf_r+0xc5c>
   24348:	e00b883a 	mov	r5,fp
   2434c:	8009883a 	mov	r4,r16
   24350:	002a3880 	call	2a388 <__srefill_r>
   24354:	103d1526 	beq	r2,zero,237ac <__svfscanf_r+0x3f4>
   24358:	94e5883a 	add	r18,r18,r19
   2435c:	003cc806 	br	23680 <__svfscanf_r+0x2c8>
   24360:	d8000a15 	stw	zero,40(sp)
   24364:	003eb906 	br	23e4c <__svfscanf_r+0xa94>
   24368:	d8000515 	stw	zero,20(sp)
   2436c:	003dc406 	br	23a80 <__svfscanf_r+0x6c8>
   24370:	8027883a 	mov	r19,r16
   24374:	a807883a 	mov	r3,r21
   24378:	8821883a 	mov	r16,r17
   2437c:	dd400817 	ldw	r21,32(sp)
   24380:	dc400717 	ldw	r17,28(sp)
   24384:	dd800615 	stw	r22,24(sp)
   24388:	00bfbfc4 	movi	r2,-257
   2438c:	a0a8703a 	and	r20,r20,r2
   24390:	003f3406 	br	24064 <__svfscanf_r+0xcac>
   24394:	a0015b1e 	bne	r20,zero,24904 <__svfscanf_r+0x154c>
   24398:	d8c00217 	ldw	r3,8(sp)
   2439c:	1dc00017 	ldw	r23,0(r3)
   243a0:	18c00104 	addi	r3,r3,4
   243a4:	d8c00215 	stw	r3,8(sp)
   243a8:	1000351e 	bne	r2,zero,24480 <__svfscanf_r+0x10c8>
   243ac:	0027883a 	mov	r19,zero
   243b0:	0027c180 	call	27c18 <__locale_mb_cur_max>
   243b4:	14fcc626 	beq	r2,r19,236d0 <__svfscanf_r+0x318>
   243b8:	e0800017 	ldw	r2,0(fp)
   243bc:	e0c00117 	ldw	r3,4(fp)
   243c0:	99009f04 	addi	r4,r19,636
   243c4:	d9400b04 	addi	r5,sp,44
   243c8:	2149883a 	add	r4,r4,r5
   243cc:	11400003 	ldbu	r5,0(r2)
   243d0:	18ffffc4 	addi	r3,r3,-1
   243d4:	10800044 	addi	r2,r2,1
   243d8:	217fa885 	stb	r5,-350(r4)
   243dc:	e0c00115 	stw	r3,4(fp)
   243e0:	e0800015 	stw	r2,0(fp)
   243e4:	8c4000d8 	cmpnei	r17,r17,3
   243e8:	9cc00044 	addi	r19,r19,1
   243ec:	8800031e 	bne	r17,zero,243fc <__svfscanf_r+0x1044>
   243f0:	d8801017 	ldw	r2,64(sp)
   243f4:	10800120 	cmpeqi	r2,r2,4
   243f8:	1001d91e 	bne	r2,zero,24b60 <__svfscanf_r+0x17a8>
   243fc:	d8801004 	addi	r2,sp,64
   24400:	d8001015 	stw	zero,64(sp)
   24404:	d8001115 	stw	zero,68(sp)
   24408:	d8800015 	stw	r2,0(sp)
   2440c:	980f883a 	mov	r7,r19
   24410:	d9805284 	addi	r6,sp,330
   24414:	b80b883a 	mov	r5,r23
   24418:	8009883a 	mov	r4,r16
   2441c:	00286dc0 	call	286dc <_mbrtowc_r>
   24420:	1023883a 	mov	r17,r2
   24424:	10bfffe0 	cmpeqi	r2,r2,-1
   24428:	103ca91e 	bne	r2,zero,236d0 <__svfscanf_r+0x318>
   2442c:	8801a41e 	bne	r17,zero,24ac0 <__svfscanf_r+0x1708>
   24430:	b8000015 	stw	zero,0(r23)
   24434:	0009883a 	mov	r4,zero
   24438:	0027b780 	call	27b78 <iswspace>
   2443c:	1001d11e 	bne	r2,zero,24b84 <__svfscanf_r+0x17cc>
   24440:	94e5883a 	add	r18,r18,r19
   24444:	b5bfffc4 	addi	r22,r22,-1
   24448:	a001b31e 	bne	r20,zero,24b18 <__svfscanf_r+0x1760>
   2444c:	bdc00104 	addi	r23,r23,4
   24450:	0027883a 	mov	r19,zero
   24454:	e0800117 	ldw	r2,4(fp)
   24458:	0081b10e 	bge	zero,r2,24b20 <__svfscanf_r+0x1768>
   2445c:	e0c00017 	ldw	r3,0(fp)
   24460:	00800134 	movhi	r2,4
   24464:	18c00003 	ldbu	r3,0(r3)
   24468:	1885883a 	add	r2,r3,r2
   2446c:	10a09943 	ldbu	r2,-32155(r2)
   24470:	1080020c 	andi	r2,r2,8
   24474:	1000011e 	bne	r2,zero,2447c <__svfscanf_r+0x10c4>
   24478:	b03fcd1e 	bne	r22,zero,243b0 <__svfscanf_r+0xff8>
   2447c:	a03c801e 	bne	r20,zero,23680 <__svfscanf_r+0x2c8>
   24480:	b8000015 	stw	zero,0(r23)
   24484:	0000a806 	br	24728 <__svfscanf_r+0x1370>
   24488:	d8c00217 	ldw	r3,8(sp)
   2448c:	1d000017 	ldw	r20,0(r3)
   24490:	18c00104 	addi	r3,r3,4
   24494:	d8c00215 	stw	r3,8(sp)
   24498:	103c5826 	beq	r2,zero,235fc <__svfscanf_r+0x244>
   2449c:	e0800117 	ldw	r2,4(fp)
   244a0:	21400044 	addi	r5,r4,1
   244a4:	e1400015 	stw	r5,0(fp)
   244a8:	10bfffc4 	addi	r2,r2,-1
   244ac:	e0800115 	stw	r2,4(fp)
   244b0:	21000003 	ldbu	r4,0(r4)
   244b4:	b0800060 	cmpeqi	r2,r22,1
   244b8:	a5c00044 	addi	r23,r20,1
   244bc:	a1000005 	stb	r4,0(r20)
   244c0:	10001b1e 	bne	r2,zero,24530 <__svfscanf_r+0x1178>
   244c4:	a5ad883a 	add	r22,r20,r22
   244c8:	00001006 	br	2450c <__svfscanf_r+0x1154>
   244cc:	e0c00017 	ldw	r3,0(fp)
   244d0:	d9000b04 	addi	r4,sp,44
   244d4:	18800003 	ldbu	r2,0(r3)
   244d8:	19400044 	addi	r5,r3,1
   244dc:	10809f04 	addi	r2,r2,636
   244e0:	1105883a 	add	r2,r2,r4
   244e4:	10bf6887 	ldb	r2,-606(r2)
   244e8:	10000f26 	beq	r2,zero,24528 <__svfscanf_r+0x1170>
   244ec:	e0800117 	ldw	r2,4(fp)
   244f0:	e1400015 	stw	r5,0(fp)
   244f4:	bdc00044 	addi	r23,r23,1
   244f8:	10bfffc4 	addi	r2,r2,-1
   244fc:	e0800115 	stw	r2,4(fp)
   24500:	18800003 	ldbu	r2,0(r3)
   24504:	b8bfffc5 	stb	r2,-1(r23)
   24508:	bd800726 	beq	r23,r22,24528 <__svfscanf_r+0x1170>
   2450c:	e0800117 	ldw	r2,4(fp)
   24510:	00bfee16 	blt	zero,r2,244cc <__svfscanf_r+0x1114>
   24514:	e00b883a 	mov	r5,fp
   24518:	8009883a 	mov	r4,r16
   2451c:	002a3880 	call	2a388 <__srefill_r>
   24520:	103fea26 	beq	r2,zero,244cc <__svfscanf_r+0x1114>
   24524:	a5fc6a26 	beq	r20,r23,236d0 <__svfscanf_r+0x318>
   24528:	bd27c83a 	sub	r19,r23,r20
   2452c:	bd3c3326 	beq	r23,r20,235fc <__svfscanf_r+0x244>
   24530:	d8800117 	ldw	r2,4(sp)
   24534:	94d3883a 	add	r9,r18,r19
   24538:	b8000005 	stb	zero,0(r23)
   2453c:	10800044 	addi	r2,r2,1
   24540:	d8800115 	stw	r2,4(sp)
   24544:	4ce5883a 	add	r18,r9,r19
   24548:	003c4d06 	br	23680 <__svfscanf_r+0x2c8>
   2454c:	d8800a17 	ldw	r2,40(sp)
   24550:	10bfffc4 	addi	r2,r2,-1
   24554:	d8800a15 	stw	r2,40(sp)
   24558:	003eb106 	br	24020 <__svfscanf_r+0xc68>
   2455c:	0029883a 	mov	r20,zero
   24560:	00000606 	br	2457c <__svfscanf_r+0x11c4>
   24564:	1887883a 	add	r3,r3,r2
   24568:	e0c00015 	stw	r3,0(fp)
   2456c:	a0a9883a 	add	r20,r20,r2
   24570:	98a7c83a 	sub	r19,r19,r2
   24574:	002a3880 	call	2a388 <__srefill_r>
   24578:	1001431e 	bne	r2,zero,24a88 <__svfscanf_r+0x16d0>
   2457c:	e0800117 	ldw	r2,4(fp)
   24580:	e0c00017 	ldw	r3,0(fp)
   24584:	e00b883a 	mov	r5,fp
   24588:	8009883a 	mov	r4,r16
   2458c:	14fff516 	blt	r2,r19,24564 <__svfscanf_r+0x11ac>
   24590:	14c5c83a 	sub	r2,r2,r19
   24594:	1cc7883a 	add	r3,r3,r19
   24598:	a4e9883a 	add	r20,r20,r19
   2459c:	e0800115 	stw	r2,4(fp)
   245a0:	e0c00015 	stw	r3,0(fp)
   245a4:	9525883a 	add	r18,r18,r20
   245a8:	003c3506 	br	23680 <__svfscanf_r+0x2c8>
   245ac:	d8c00217 	ldw	r3,8(sp)
   245b0:	1d000017 	ldw	r20,0(r3)
   245b4:	1cc00104 	addi	r19,r3,4
   245b8:	1001941e 	bne	r2,zero,24c0c <__svfscanf_r+0x1854>
   245bc:	e0800117 	ldw	r2,4(fp)
   245c0:	21400044 	addi	r5,r4,1
   245c4:	e1400015 	stw	r5,0(fp)
   245c8:	10bfffc4 	addi	r2,r2,-1
   245cc:	e0800115 	stw	r2,4(fp)
   245d0:	21000003 	ldbu	r4,0(r4)
   245d4:	b0800058 	cmpnei	r2,r22,1
   245d8:	a5c00044 	addi	r23,r20,1
   245dc:	a1000005 	stb	r4,0(r20)
   245e0:	a5ad883a 	add	r22,r20,r22
   245e4:	1000111e 	bne	r2,zero,2462c <__svfscanf_r+0x1274>
   245e8:	00018e06 	br	24c24 <__svfscanf_r+0x186c>
   245ec:	e0c00017 	ldw	r3,0(fp)
   245f0:	00800134 	movhi	r2,4
   245f4:	19400003 	ldbu	r5,0(r3)
   245f8:	19800044 	addi	r6,r3,1
   245fc:	2885883a 	add	r2,r5,r2
   24600:	10a09943 	ldbu	r2,-32155(r2)
   24604:	1080020c 	andi	r2,r2,8
   24608:	10000e1e 	bne	r2,zero,24644 <__svfscanf_r+0x128c>
   2460c:	e0800117 	ldw	r2,4(fp)
   24610:	e1800015 	stw	r6,0(fp)
   24614:	bdc00044 	addi	r23,r23,1
   24618:	10bfffc4 	addi	r2,r2,-1
   2461c:	e0800115 	stw	r2,4(fp)
   24620:	18800003 	ldbu	r2,0(r3)
   24624:	b8bfffc5 	stb	r2,-1(r23)
   24628:	bd800626 	beq	r23,r22,24644 <__svfscanf_r+0x128c>
   2462c:	e0800117 	ldw	r2,4(fp)
   24630:	00bfee16 	blt	zero,r2,245ec <__svfscanf_r+0x1234>
   24634:	e00b883a 	mov	r5,fp
   24638:	8009883a 	mov	r4,r16
   2463c:	002a3880 	call	2a388 <__srefill_r>
   24640:	103fea26 	beq	r2,zero,245ec <__svfscanf_r+0x1234>
   24644:	bd29c83a 	sub	r20,r23,r20
   24648:	9525883a 	add	r18,r18,r20
   2464c:	d8800117 	ldw	r2,4(sp)
   24650:	b8000005 	stb	zero,0(r23)
   24654:	dcc00215 	stw	r19,8(sp)
   24658:	10800044 	addi	r2,r2,1
   2465c:	d8800115 	stw	r2,4(sp)
   24660:	003c0706 	br	23680 <__svfscanf_r+0x2c8>
   24664:	a000c51e 	bne	r20,zero,2497c <__svfscanf_r+0x15c4>
   24668:	d8800217 	ldw	r2,8(sp)
   2466c:	15800017 	ldw	r22,0(r2)
   24670:	10800104 	addi	r2,r2,4
   24674:	d8800215 	stw	r2,8(sp)
   24678:	002f883a 	mov	r23,zero
   2467c:	0027c180 	call	27c18 <__locale_mb_cur_max>
   24680:	15fc1326 	beq	r2,r23,236d0 <__svfscanf_r+0x318>
   24684:	e0800017 	ldw	r2,0(fp)
   24688:	e0c00117 	ldw	r3,4(fp)
   2468c:	b9009f04 	addi	r4,r23,636
   24690:	d9400b04 	addi	r5,sp,44
   24694:	2149883a 	add	r4,r4,r5
   24698:	11400003 	ldbu	r5,0(r2)
   2469c:	18ffffc4 	addi	r3,r3,-1
   246a0:	10800044 	addi	r2,r2,1
   246a4:	217fa885 	stb	r5,-350(r4)
   246a8:	e0c00115 	stw	r3,4(fp)
   246ac:	e0800015 	stw	r2,0(fp)
   246b0:	8c4000d8 	cmpnei	r17,r17,3
   246b4:	bdc00044 	addi	r23,r23,1
   246b8:	8800031e 	bne	r17,zero,246c8 <__svfscanf_r+0x1310>
   246bc:	d8801017 	ldw	r2,64(sp)
   246c0:	10800120 	cmpeqi	r2,r2,4
   246c4:	1000e41e 	bne	r2,zero,24a58 <__svfscanf_r+0x16a0>
   246c8:	d8801004 	addi	r2,sp,64
   246cc:	d8001015 	stw	zero,64(sp)
   246d0:	d8001115 	stw	zero,68(sp)
   246d4:	d8800015 	stw	r2,0(sp)
   246d8:	b80f883a 	mov	r7,r23
   246dc:	d9805284 	addi	r6,sp,330
   246e0:	b00b883a 	mov	r5,r22
   246e4:	8009883a 	mov	r4,r16
   246e8:	00286dc0 	call	286dc <_mbrtowc_r>
   246ec:	1023883a 	mov	r17,r2
   246f0:	10bfffe0 	cmpeqi	r2,r2,-1
   246f4:	103bf61e 	bne	r2,zero,236d0 <__svfscanf_r+0x318>
   246f8:	8800961e 	bne	r17,zero,24954 <__svfscanf_r+0x159c>
   246fc:	a000011e 	bne	r20,zero,24704 <__svfscanf_r+0x134c>
   24700:	b0000015 	stw	zero,0(r22)
   24704:	95e5883a 	add	r18,r18,r23
   24708:	9cffffc4 	addi	r19,r19,-1
   2470c:	a000011e 	bne	r20,zero,24714 <__svfscanf_r+0x135c>
   24710:	b5800104 	addi	r22,r22,4
   24714:	e0800117 	ldw	r2,4(fp)
   24718:	002f883a 	mov	r23,zero
   2471c:	0080910e 	bge	zero,r2,24964 <__svfscanf_r+0x15ac>
   24720:	983fd61e 	bne	r19,zero,2467c <__svfscanf_r+0x12c4>
   24724:	a03bd61e 	bne	r20,zero,23680 <__svfscanf_r+0x2c8>
   24728:	d8800117 	ldw	r2,4(sp)
   2472c:	10800044 	addi	r2,r2,1
   24730:	d8800115 	stw	r2,4(sp)
   24734:	003bd206 	br	23680 <__svfscanf_r+0x2c8>
   24738:	a0009226 	beq	r20,zero,24984 <__svfscanf_r+0x15cc>
   2473c:	ddc00d04 	addi	r23,sp,52
   24740:	0027883a 	mov	r19,zero
   24744:	0027c180 	call	27c18 <__locale_mb_cur_max>
   24748:	14fbe126 	beq	r2,r19,236d0 <__svfscanf_r+0x318>
   2474c:	e0800017 	ldw	r2,0(fp)
   24750:	e0c00117 	ldw	r3,4(fp)
   24754:	99009f04 	addi	r4,r19,636
   24758:	d9400b04 	addi	r5,sp,44
   2475c:	2149883a 	add	r4,r4,r5
   24760:	11400003 	ldbu	r5,0(r2)
   24764:	18ffffc4 	addi	r3,r3,-1
   24768:	10800044 	addi	r2,r2,1
   2476c:	217fa885 	stb	r5,-350(r4)
   24770:	e0c00115 	stw	r3,4(fp)
   24774:	e0800015 	stw	r2,0(fp)
   24778:	8c4000d8 	cmpnei	r17,r17,3
   2477c:	9cc00044 	addi	r19,r19,1
   24780:	8800031e 	bne	r17,zero,24790 <__svfscanf_r+0x13d8>
   24784:	d8800e17 	ldw	r2,56(sp)
   24788:	10800120 	cmpeqi	r2,r2,4
   2478c:	1000aa1e 	bne	r2,zero,24a38 <__svfscanf_r+0x1680>
   24790:	d8800e04 	addi	r2,sp,56
   24794:	d8000e15 	stw	zero,56(sp)
   24798:	d8000f15 	stw	zero,60(sp)
   2479c:	d8800015 	stw	r2,0(sp)
   247a0:	980f883a 	mov	r7,r19
   247a4:	d9805284 	addi	r6,sp,330
   247a8:	b80b883a 	mov	r5,r23
   247ac:	8009883a 	mov	r4,r16
   247b0:	00286dc0 	call	286dc <_mbrtowc_r>
   247b4:	1023883a 	mov	r17,r2
   247b8:	10bfffe0 	cmpeqi	r2,r2,-1
   247bc:	103bc41e 	bne	r2,zero,236d0 <__svfscanf_r+0x318>
   247c0:	88005a1e 	bne	r17,zero,2492c <__svfscanf_r+0x1574>
   247c4:	b8000015 	stw	zero,0(r23)
   247c8:	000d883a 	mov	r6,zero
   247cc:	00800134 	movhi	r2,4
   247d0:	10a38617 	ldw	r2,-29160(r2)
   247d4:	d8001015 	stw	zero,64(sp)
   247d8:	d8001115 	stw	zero,68(sp)
   247dc:	d9c01004 	addi	r7,sp,64
   247e0:	d9400cc4 	addi	r5,sp,51
   247e4:	8009883a 	mov	r4,r16
   247e8:	103ee83a 	callr	r2
   247ec:	10800058 	cmpnei	r2,r2,1
   247f0:	10009326 	beq	r2,zero,24a40 <__svfscanf_r+0x1688>
   247f4:	000d883a 	mov	r6,zero
   247f8:	30809f04 	addi	r2,r6,636
   247fc:	d8c00b04 	addi	r3,sp,44
   24800:	10cd883a 	add	r6,r2,r3
   24804:	30bf6887 	ldb	r2,-606(r6)
   24808:	1000cb26 	beq	r2,zero,24b38 <__svfscanf_r+0x1780>
   2480c:	888000d8 	cmpnei	r2,r17,3
   24810:	94e5883a 	add	r18,r18,r19
   24814:	10008c26 	beq	r2,zero,24a48 <__svfscanf_r+0x1690>
   24818:	b5bfffc4 	addi	r22,r22,-1
   2481c:	a000011e 	bne	r20,zero,24824 <__svfscanf_r+0x146c>
   24820:	bdc00104 	addi	r23,r23,4
   24824:	e0800117 	ldw	r2,4(fp)
   24828:	0027883a 	mov	r19,zero
   2482c:	0080430e 	bge	zero,r2,2493c <__svfscanf_r+0x1584>
   24830:	b03fc41e 	bne	r22,zero,24744 <__svfscanf_r+0x138c>
   24834:	94e5883a 	add	r18,r18,r19
   24838:	003f1006 	br	2447c <__svfscanf_r+0x10c4>
   2483c:	00bf1fc4 	movi	r2,-897
   24840:	98a6703a 	and	r19,r19,r2
   24844:	d8800517 	ldw	r2,20(sp)
   24848:	10000326 	beq	r2,zero,24858 <__svfscanf_r+0x14a0>
   2484c:	10bfffc4 	addi	r2,r2,-1
   24850:	d8800515 	stw	r2,20(sp)
   24854:	b5800044 	addi	r22,r22,1
   24858:	a5000044 	addi	r20,r20,1
   2485c:	003ceb06 	br	23c0c <__svfscanf_r+0x854>
   24860:	98c0010c 	andi	r3,r19,4
   24864:	18004c1e 	bne	r3,zero,24998 <__svfscanf_r+0x15e0>
   24868:	98c0004c 	andi	r3,r19,1
   2486c:	1800a01e 	bne	r3,zero,24af0 <__svfscanf_r+0x1738>
   24870:	98c0008c 	andi	r3,r19,2
   24874:	18009e26 	beq	r3,zero,24af0 <__svfscanf_r+0x1738>
   24878:	d8c00417 	ldw	r3,16(sp)
   2487c:	008000f4 	movhi	r2,3
   24880:	10b29c04 	addi	r2,r2,-13712
   24884:	d9c00317 	ldw	r7,12(sp)
   24888:	000d883a 	mov	r6,zero
   2488c:	d9405284 	addi	r5,sp,330
   24890:	8009883a 	mov	r4,r16
   24894:	1880df26 	beq	r3,r2,24c14 <__svfscanf_r+0x185c>
   24898:	002c7c40 	call	2c7c4 <_strtoll_r>
   2489c:	1009883a 	mov	r4,r2
   248a0:	1805883a 	mov	r2,r3
   248a4:	d8c00217 	ldw	r3,8(sp)
   248a8:	18c00017 	ldw	r3,0(r3)
   248ac:	19000015 	stw	r4,0(r3)
   248b0:	18800115 	stw	r2,4(r3)
   248b4:	003cf406 	br	23c88 <__svfscanf_r+0x8d0>
   248b8:	d8800217 	ldw	r2,8(sp)
   248bc:	a280008c 	andi	r10,r20,2
   248c0:	15c00017 	ldw	r23,0(r2)
   248c4:	5000381e 	bne	r10,zero,249a8 <__svfscanf_r+0x15f0>
   248c8:	180f883a 	mov	r7,r3
   248cc:	180b883a 	mov	r5,r3
   248d0:	980d883a 	mov	r6,r19
   248d4:	9809883a 	mov	r4,r19
   248d8:	d8c00215 	stw	r3,8(sp)
   248dc:	00361080 	call	36108 <__unorddf2>
   248e0:	d8c00217 	ldw	r3,8(sp)
   248e4:	1000d11e 	bne	r2,zero,24c2c <__svfscanf_r+0x1874>
   248e8:	9809883a 	mov	r4,r19
   248ec:	180b883a 	mov	r5,r3
   248f0:	00363240 	call	36324 <__truncdfsf2>
   248f4:	b8800015 	stw	r2,0(r23)
   248f8:	003e5a06 	br	24264 <__svfscanf_r+0xeac>
   248fc:	282b883a 	mov	r21,r5
   24900:	003b5f06 	br	23680 <__svfscanf_r+0x2c8>
   24904:	103b5e1e 	bne	r2,zero,23680 <__svfscanf_r+0x2c8>
   24908:	ddc00d04 	addi	r23,sp,52
   2490c:	003ea706 	br	243ac <__svfscanf_r+0xff4>
   24910:	e00d883a 	mov	r6,fp
   24914:	8009883a 	mov	r4,r16
   24918:	002ee740 	call	2ee74 <_ungetc_r>
   2491c:	b97fff87 	ldb	r5,-2(r23)
   24920:	bdbfff84 	addi	r22,r23,-2
   24924:	94ffff84 	addi	r19,r18,-2
   24928:	003e3506 	br	24200 <__svfscanf_r+0xe48>
   2492c:	88bfffa0 	cmpeqi	r2,r17,-2
   24930:	1000cd26 	beq	r2,zero,24c68 <__svfscanf_r+0x18b0>
   24934:	e0800117 	ldw	r2,4(fp)
   24938:	00bf8216 	blt	zero,r2,24744 <__svfscanf_r+0x138c>
   2493c:	e00b883a 	mov	r5,fp
   24940:	8009883a 	mov	r4,r16
   24944:	002a3880 	call	2a388 <__srefill_r>
   24948:	103fb926 	beq	r2,zero,24830 <__svfscanf_r+0x1478>
   2494c:	983ecb26 	beq	r19,zero,2447c <__svfscanf_r+0x10c4>
   24950:	003b5f06 	br	236d0 <__svfscanf_r+0x318>
   24954:	88bfff98 	cmpnei	r2,r17,-2
   24958:	1000301e 	bne	r2,zero,24a1c <__svfscanf_r+0x1664>
   2495c:	e0800117 	ldw	r2,4(fp)
   24960:	00bf4616 	blt	zero,r2,2467c <__svfscanf_r+0x12c4>
   24964:	e00b883a 	mov	r5,fp
   24968:	8009883a 	mov	r4,r16
   2496c:	002a3880 	call	2a388 <__srefill_r>
   24970:	103f6b26 	beq	r2,zero,24720 <__svfscanf_r+0x1368>
   24974:	b83f6b26 	beq	r23,zero,24724 <__svfscanf_r+0x136c>
   24978:	003b5506 	br	236d0 <__svfscanf_r+0x318>
   2497c:	002d883a 	mov	r22,zero
   24980:	003f3d06 	br	24678 <__svfscanf_r+0x12c0>
   24984:	d8800217 	ldw	r2,8(sp)
   24988:	15c00017 	ldw	r23,0(r2)
   2498c:	10800104 	addi	r2,r2,4
   24990:	d8800215 	stw	r2,8(sp)
   24994:	003f6a06 	br	24740 <__svfscanf_r+0x1388>
   24998:	d8c00217 	ldw	r3,8(sp)
   2499c:	18c00017 	ldw	r3,0(r3)
   249a0:	1880000d 	sth	r2,0(r3)
   249a4:	003cb806 	br	23c88 <__svfscanf_r+0x8d0>
   249a8:	bcc00015 	stw	r19,0(r23)
   249ac:	b8c00115 	stw	r3,4(r23)
   249b0:	003e2c06 	br	24264 <__svfscanf_r+0xeac>
   249b4:	1c80000d 	sth	r18,0(r3)
   249b8:	d9000215 	stw	r4,8(sp)
   249bc:	282b883a 	mov	r21,r5
   249c0:	003b2f06 	br	23680 <__svfscanf_r+0x2c8>
   249c4:	008000f4 	movhi	r2,3
   249c8:	003bbc06 	br	238bc <__svfscanf_r+0x504>
   249cc:	008000f4 	movhi	r2,3
   249d0:	003c0206 	br	239dc <__svfscanf_r+0x624>
   249d4:	ddc00b17 	ldw	r23,44(sp)
   249d8:	01c00284 	movi	r7,10
   249dc:	000d883a 	mov	r6,zero
   249e0:	b9400044 	addi	r5,r23,1
   249e4:	8009883a 	mov	r4,r16
   249e8:	002c4c00 	call	2c4c0 <_strtol_r>
   249ec:	d8c00917 	ldw	r3,36(sp)
   249f0:	10cdc83a 	sub	r6,r2,r3
   249f4:	d880a744 	addi	r2,sp,669
   249f8:	b8800136 	bltu	r23,r2,24a00 <__svfscanf_r+0x1648>
   249fc:	ddc0a704 	addi	r23,sp,668
   24a00:	01400134 	movhi	r5,4
   24a04:	29608f04 	addi	r5,r5,-32196
   24a08:	b809883a 	mov	r4,r23
   24a0c:	002a7480 	call	2a748 <sprintf>
   24a10:	003e0806 	br	24234 <__svfscanf_r+0xe7c>
   24a14:	94800044 	addi	r18,r18,1
   24a18:	003b1906 	br	23680 <__svfscanf_r+0x2c8>
   24a1c:	888000d8 	cmpnei	r2,r17,3
   24a20:	95e5883a 	add	r18,r18,r23
   24a24:	103f381e 	bne	r2,zero,24708 <__svfscanf_r+0x1350>
   24a28:	d8801017 	ldw	r2,64(sp)
   24a2c:	10800120 	cmpeqi	r2,r2,4
   24a30:	103f3526 	beq	r2,zero,24708 <__svfscanf_r+0x1350>
   24a34:	003f3506 	br	2470c <__svfscanf_r+0x1354>
   24a38:	d8800e04 	addi	r2,sp,56
   24a3c:	003f5706 	br	2479c <__svfscanf_r+0x13e4>
   24a40:	d9800cc3 	ldbu	r6,51(sp)
   24a44:	003f6c06 	br	247f8 <__svfscanf_r+0x1440>
   24a48:	d8800e17 	ldw	r2,56(sp)
   24a4c:	10800120 	cmpeqi	r2,r2,4
   24a50:	103f7126 	beq	r2,zero,24818 <__svfscanf_r+0x1460>
   24a54:	003f7106 	br	2481c <__svfscanf_r+0x1464>
   24a58:	d8801004 	addi	r2,sp,64
   24a5c:	003f1d06 	br	246d4 <__svfscanf_r+0x131c>
   24a60:	b97fffc7 	ldb	r5,-1(r23)
   24a64:	e00d883a 	mov	r6,fp
   24a68:	8009883a 	mov	r4,r16
   24a6c:	bdffffc4 	addi	r23,r23,-1
   24a70:	002ee740 	call	2ee74 <_ungetc_r>
   24a74:	003c7306 	br	23c44 <__svfscanf_r+0x88c>
   24a78:	d8800517 	ldw	r2,20(sp)
   24a7c:	d8c00617 	ldw	r3,24(sp)
   24a80:	10ffdb1e 	bne	r2,r3,249f0 <__svfscanf_r+0x1638>
   24a84:	003deb06 	br	24234 <__svfscanf_r+0xe7c>
   24a88:	a03ec61e 	bne	r20,zero,245a4 <__svfscanf_r+0x11ec>
   24a8c:	003b1006 	br	236d0 <__svfscanf_r+0x318>
   24a90:	a9800083 	ldbu	r6,2(r21)
   24a94:	a5000094 	ori	r20,r20,2
   24a98:	ad400084 	addi	r21,r21,2
   24a9c:	003a7206 	br	23468 <__svfscanf_r+0xb0>
   24aa0:	00be1fc4 	movi	r2,-1921
   24aa4:	a0a8703a 	and	r20,r20,r2
   24aa8:	04000044 	movi	r16,1
   24aac:	003d5906 	br	24014 <__svfscanf_r+0xc5c>
   24ab0:	00be1fc4 	movi	r2,-1921
   24ab4:	a0a8703a 	and	r20,r20,r2
   24ab8:	05400044 	movi	r21,1
   24abc:	003d5506 	br	24014 <__svfscanf_r+0xc5c>
   24ac0:	88bfffa0 	cmpeqi	r2,r17,-2
   24ac4:	103e631e 	bne	r2,zero,24454 <__svfscanf_r+0x109c>
   24ac8:	b9000017 	ldw	r4,0(r23)
   24acc:	0027b780 	call	27b78 <iswspace>
   24ad0:	10002c1e 	bne	r2,zero,24b84 <__svfscanf_r+0x17cc>
   24ad4:	888000d8 	cmpnei	r2,r17,3
   24ad8:	94e5883a 	add	r18,r18,r19
   24adc:	103e591e 	bne	r2,zero,24444 <__svfscanf_r+0x108c>
   24ae0:	d8801017 	ldw	r2,64(sp)
   24ae4:	10800120 	cmpeqi	r2,r2,4
   24ae8:	103e5626 	beq	r2,zero,24444 <__svfscanf_r+0x108c>
   24aec:	003e5606 	br	24448 <__svfscanf_r+0x1090>
   24af0:	d8c00217 	ldw	r3,8(sp)
   24af4:	18c00017 	ldw	r3,0(r3)
   24af8:	18800015 	stw	r2,0(r3)
   24afc:	003c6206 	br	23c88 <__svfscanf_r+0x8d0>
   24b00:	d8000115 	stw	zero,4(sp)
   24b04:	003abd06 	br	235fc <__svfscanf_r+0x244>
   24b08:	1c800015 	stw	r18,0(r3)
   24b0c:	d9000215 	stw	r4,8(sp)
   24b10:	282b883a 	mov	r21,r5
   24b14:	003ada06 	br	23680 <__svfscanf_r+0x2c8>
   24b18:	0027883a 	mov	r19,zero
   24b1c:	003e4d06 	br	24454 <__svfscanf_r+0x109c>
   24b20:	e00b883a 	mov	r5,fp
   24b24:	8009883a 	mov	r4,r16
   24b28:	002a3880 	call	2a388 <__srefill_r>
   24b2c:	103e4b26 	beq	r2,zero,2445c <__svfscanf_r+0x10a4>
   24b30:	983e5226 	beq	r19,zero,2447c <__svfscanf_r+0x10c4>
   24b34:	003ae606 	br	236d0 <__svfscanf_r+0x318>
   24b38:	983e5026 	beq	r19,zero,2447c <__svfscanf_r+0x10c4>
   24b3c:	9cffffc4 	addi	r19,r19,-1
   24b40:	d8805284 	addi	r2,sp,330
   24b44:	14c5883a 	add	r2,r2,r19
   24b48:	11400003 	ldbu	r5,0(r2)
   24b4c:	e00d883a 	mov	r6,fp
   24b50:	8009883a 	mov	r4,r16
   24b54:	002ee740 	call	2ee74 <_ungetc_r>
   24b58:	983ff81e 	bne	r19,zero,24b3c <__svfscanf_r+0x1784>
   24b5c:	003e4706 	br	2447c <__svfscanf_r+0x10c4>
   24b60:	d8801004 	addi	r2,sp,64
   24b64:	003e2806 	br	24408 <__svfscanf_r+0x1050>
   24b68:	8027883a 	mov	r19,r16
   24b6c:	a807883a 	mov	r3,r21
   24b70:	8821883a 	mov	r16,r17
   24b74:	dd400817 	ldw	r21,32(sp)
   24b78:	dc400717 	ldw	r17,28(sp)
   24b7c:	dd800615 	stw	r22,24(sp)
   24b80:	003d3806 	br	24064 <__svfscanf_r+0xcac>
   24b84:	983e3d26 	beq	r19,zero,2447c <__svfscanf_r+0x10c4>
   24b88:	9cffffc4 	addi	r19,r19,-1
   24b8c:	d8805284 	addi	r2,sp,330
   24b90:	14c5883a 	add	r2,r2,r19
   24b94:	11400003 	ldbu	r5,0(r2)
   24b98:	e00d883a 	mov	r6,fp
   24b9c:	8009883a 	mov	r4,r16
   24ba0:	002ee740 	call	2ee74 <_ungetc_r>
   24ba4:	983ff81e 	bne	r19,zero,24b88 <__svfscanf_r+0x17d0>
   24ba8:	003e3406 	br	2447c <__svfscanf_r+0x10c4>
   24bac:	b82d883a 	mov	r22,r23
   24bb0:	d8805284 	addi	r2,sp,330
   24bb4:	e02f883a 	mov	r23,fp
   24bb8:	15ba902e 	bgeu	r2,r22,235fc <__svfscanf_r+0x244>
   24bbc:	b17fffc7 	ldb	r5,-1(r22)
   24bc0:	b80d883a 	mov	r6,r23
   24bc4:	8009883a 	mov	r4,r16
   24bc8:	002ee740 	call	2ee74 <_ungetc_r>
   24bcc:	b5bfffc4 	addi	r22,r22,-1
   24bd0:	d8805284 	addi	r2,sp,330
   24bd4:	b0bff91e 	bne	r22,r2,24bbc <__svfscanf_r+0x1804>
   24bd8:	003a8806 	br	235fc <__svfscanf_r+0x244>
   24bdc:	b82d883a 	mov	r22,r23
   24be0:	d8805284 	addi	r2,sp,330
   24be4:	e02f883a 	mov	r23,fp
   24be8:	15ba842e 	bgeu	r2,r22,235fc <__svfscanf_r+0x244>
   24bec:	b17fffc7 	ldb	r5,-1(r22)
   24bf0:	b80d883a 	mov	r6,r23
   24bf4:	8009883a 	mov	r4,r16
   24bf8:	002ee740 	call	2ee74 <_ungetc_r>
   24bfc:	b5bfffc4 	addi	r22,r22,-1
   24c00:	d8805284 	addi	r2,sp,330
   24c04:	b0bff91e 	bne	r22,r2,24bec <__svfscanf_r+0x1834>
   24c08:	003a7c06 	br	235fc <__svfscanf_r+0x244>
   24c0c:	a02f883a 	mov	r23,r20
   24c10:	003e8e06 	br	2464c <__svfscanf_r+0x1294>
   24c14:	002cdc80 	call	2cdc8 <_strtoull_r>
   24c18:	1009883a 	mov	r4,r2
   24c1c:	1805883a 	mov	r2,r3
   24c20:	003f2006 	br	248a4 <__svfscanf_r+0x14ec>
   24c24:	94800044 	addi	r18,r18,1
   24c28:	003e8806 	br	2464c <__svfscanf_r+0x1294>
   24c2c:	009ff034 	movhi	r2,32704
   24c30:	b8800015 	stw	r2,0(r23)
   24c34:	003d8b06 	br	24264 <__svfscanf_r+0xeac>
   24c38:	b82d883a 	mov	r22,r23
   24c3c:	d8805284 	addi	r2,sp,330
   24c40:	e02f883a 	mov	r23,fp
   24c44:	15ba6d2e 	bgeu	r2,r22,235fc <__svfscanf_r+0x244>
   24c48:	b17fffc7 	ldb	r5,-1(r22)
   24c4c:	b80d883a 	mov	r6,r23
   24c50:	8009883a 	mov	r4,r16
   24c54:	002ee740 	call	2ee74 <_ungetc_r>
   24c58:	b5bfffc4 	addi	r22,r22,-1
   24c5c:	d8805284 	addi	r2,sp,330
   24c60:	b0bff91e 	bne	r22,r2,24c48 <__svfscanf_r+0x1890>
   24c64:	003a6506 	br	235fc <__svfscanf_r+0x244>
   24c68:	b9800017 	ldw	r6,0(r23)
   24c6c:	30bfffe0 	cmpeqi	r2,r6,-1
   24c70:	103ed626 	beq	r2,zero,247cc <__svfscanf_r+0x1414>
   24c74:	003ee006 	br	247f8 <__svfscanf_r+0x1440>

00024c78 <vfscanf>:
   24c78:	defffb04 	addi	sp,sp,-20
   24c7c:	00800134 	movhi	r2,4
   24c80:	dc800315 	stw	r18,12(sp)
   24c84:	14a8bb17 	ldw	r18,-23828(r2)
   24c88:	dc000215 	stw	r16,8(sp)
   24c8c:	dfc00415 	stw	ra,16(sp)
   24c90:	2021883a 	mov	r16,r4
   24c94:	300f883a 	mov	r7,r6
   24c98:	90000226 	beq	r18,zero,24ca4 <vfscanf+0x2c>
   24c9c:	90800e17 	ldw	r2,56(r18)
   24ca0:	10000826 	beq	r2,zero,24cc4 <vfscanf+0x4c>
   24ca4:	280d883a 	mov	r6,r5
   24ca8:	9009883a 	mov	r4,r18
   24cac:	800b883a 	mov	r5,r16
   24cb0:	dfc00417 	ldw	ra,16(sp)
   24cb4:	dc800317 	ldw	r18,12(sp)
   24cb8:	dc000217 	ldw	r16,8(sp)
   24cbc:	dec00504 	addi	sp,sp,20
   24cc0:	00233b81 	jmpi	233b8 <__svfscanf_r>
   24cc4:	9009883a 	mov	r4,r18
   24cc8:	d9400015 	stw	r5,0(sp)
   24ccc:	d9800115 	stw	r6,4(sp)
   24cd0:	0026e840 	call	26e84 <__sinit>
   24cd4:	d9c00117 	ldw	r7,4(sp)
   24cd8:	d9400017 	ldw	r5,0(sp)
   24cdc:	003ff106 	br	24ca4 <vfscanf+0x2c>

00024ce0 <__svfscanf>:
   24ce0:	00c00134 	movhi	r3,4
   24ce4:	2005883a 	mov	r2,r4
   24ce8:	1928bb17 	ldw	r4,-23828(r3)
   24cec:	300f883a 	mov	r7,r6
   24cf0:	280d883a 	mov	r6,r5
   24cf4:	100b883a 	mov	r5,r2
   24cf8:	00233b81 	jmpi	233b8 <__svfscanf_r>

00024cfc <_vfscanf_r>:
   24cfc:	defffb04 	addi	sp,sp,-20
   24d00:	dc000315 	stw	r16,12(sp)
   24d04:	dfc00415 	stw	ra,16(sp)
   24d08:	2021883a 	mov	r16,r4
   24d0c:	20000226 	beq	r4,zero,24d18 <_vfscanf_r+0x1c>
   24d10:	20800e17 	ldw	r2,56(r4)
   24d14:	10000526 	beq	r2,zero,24d2c <_vfscanf_r+0x30>
   24d18:	8009883a 	mov	r4,r16
   24d1c:	dfc00417 	ldw	ra,16(sp)
   24d20:	dc000317 	ldw	r16,12(sp)
   24d24:	dec00504 	addi	sp,sp,20
   24d28:	00233b81 	jmpi	233b8 <__svfscanf_r>
   24d2c:	d9c00215 	stw	r7,8(sp)
   24d30:	d9800115 	stw	r6,4(sp)
   24d34:	d9400015 	stw	r5,0(sp)
   24d38:	0026e840 	call	26e84 <__sinit>
   24d3c:	d9c00217 	ldw	r7,8(sp)
   24d40:	d9800117 	ldw	r6,4(sp)
   24d44:	d9400017 	ldw	r5,0(sp)
   24d48:	003ff306 	br	24d18 <_vfscanf_r+0x1c>

00024d4c <__swsetup_r>:
   24d4c:	00800134 	movhi	r2,4
   24d50:	10a8bb17 	ldw	r2,-23828(r2)
   24d54:	defffd04 	addi	sp,sp,-12
   24d58:	dc400115 	stw	r17,4(sp)
   24d5c:	dc000015 	stw	r16,0(sp)
   24d60:	dfc00215 	stw	ra,8(sp)
   24d64:	2023883a 	mov	r17,r4
   24d68:	2821883a 	mov	r16,r5
   24d6c:	10000226 	beq	r2,zero,24d78 <__swsetup_r+0x2c>
   24d70:	10c00e17 	ldw	r3,56(r2)
   24d74:	18001f26 	beq	r3,zero,24df4 <__swsetup_r+0xa8>
   24d78:	8180030b 	ldhu	r6,12(r16)
   24d7c:	30c0020c 	andi	r3,r6,8
   24d80:	3005883a 	mov	r2,r6
   24d84:	18002126 	beq	r3,zero,24e0c <__swsetup_r+0xc0>
   24d88:	80c00417 	ldw	r3,16(r16)
   24d8c:	18002826 	beq	r3,zero,24e30 <__swsetup_r+0xe4>
   24d90:	1100004c 	andi	r4,r2,1
   24d94:	20000b1e 	bne	r4,zero,24dc4 <__swsetup_r+0x78>
   24d98:	1100008c 	andi	r4,r2,2
   24d9c:	20002e1e 	bne	r4,zero,24e58 <__swsetup_r+0x10c>
   24da0:	81000517 	ldw	r4,20(r16)
   24da4:	81000215 	stw	r4,8(r16)
   24da8:	18000b26 	beq	r3,zero,24dd8 <__swsetup_r+0x8c>
   24dac:	0005883a 	mov	r2,zero
   24db0:	dfc00217 	ldw	ra,8(sp)
   24db4:	dc400117 	ldw	r17,4(sp)
   24db8:	dc000017 	ldw	r16,0(sp)
   24dbc:	dec00304 	addi	sp,sp,12
   24dc0:	f800283a 	ret
   24dc4:	81000517 	ldw	r4,20(r16)
   24dc8:	80000215 	stw	zero,8(r16)
   24dcc:	0109c83a 	sub	r4,zero,r4
   24dd0:	81000615 	stw	r4,24(r16)
   24dd4:	183ff51e 	bne	r3,zero,24dac <__swsetup_r+0x60>
   24dd8:	10c0200c 	andi	r3,r2,128
   24ddc:	0005883a 	mov	r2,zero
   24de0:	183ff326 	beq	r3,zero,24db0 <__swsetup_r+0x64>
   24de4:	31801014 	ori	r6,r6,64
   24de8:	8180030d 	sth	r6,12(r16)
   24dec:	00bfffc4 	movi	r2,-1
   24df0:	003fef06 	br	24db0 <__swsetup_r+0x64>
   24df4:	1009883a 	mov	r4,r2
   24df8:	0026e840 	call	26e84 <__sinit>
   24dfc:	8180030b 	ldhu	r6,12(r16)
   24e00:	30c0020c 	andi	r3,r6,8
   24e04:	3005883a 	mov	r2,r6
   24e08:	183fdf1e 	bne	r3,zero,24d88 <__swsetup_r+0x3c>
   24e0c:	3080040c 	andi	r2,r6,16
   24e10:	10002126 	beq	r2,zero,24e98 <__swsetup_r+0x14c>
   24e14:	3080010c 	andi	r2,r6,4
   24e18:	1000111e 	bne	r2,zero,24e60 <__swsetup_r+0x114>
   24e1c:	80c00417 	ldw	r3,16(r16)
   24e20:	30800214 	ori	r2,r6,8
   24e24:	8080030d 	sth	r2,12(r16)
   24e28:	100d883a 	mov	r6,r2
   24e2c:	183fd81e 	bne	r3,zero,24d90 <__swsetup_r+0x44>
   24e30:	1100a00c 	andi	r4,r2,640
   24e34:	21008020 	cmpeqi	r4,r4,512
   24e38:	203fd51e 	bne	r4,zero,24d90 <__swsetup_r+0x44>
   24e3c:	800b883a 	mov	r5,r16
   24e40:	8809883a 	mov	r4,r17
   24e44:	0027cb80 	call	27cb8 <__smakebuf_r>
   24e48:	8180030b 	ldhu	r6,12(r16)
   24e4c:	80c00417 	ldw	r3,16(r16)
   24e50:	3005883a 	mov	r2,r6
   24e54:	003fce06 	br	24d90 <__swsetup_r+0x44>
   24e58:	0009883a 	mov	r4,zero
   24e5c:	003fd106 	br	24da4 <__swsetup_r+0x58>
   24e60:	81400c17 	ldw	r5,48(r16)
   24e64:	28000626 	beq	r5,zero,24e80 <__swsetup_r+0x134>
   24e68:	80801004 	addi	r2,r16,64
   24e6c:	28800326 	beq	r5,r2,24e7c <__swsetup_r+0x130>
   24e70:	8809883a 	mov	r4,r17
   24e74:	00272700 	call	27270 <_free_r>
   24e78:	8180030b 	ldhu	r6,12(r16)
   24e7c:	80000c15 	stw	zero,48(r16)
   24e80:	80c00417 	ldw	r3,16(r16)
   24e84:	00bff6c4 	movi	r2,-37
   24e88:	118c703a 	and	r6,r2,r6
   24e8c:	80000115 	stw	zero,4(r16)
   24e90:	80c00015 	stw	r3,0(r16)
   24e94:	003fe206 	br	24e20 <__swsetup_r+0xd4>
   24e98:	00800244 	movi	r2,9
   24e9c:	88800015 	stw	r2,0(r17)
   24ea0:	31801014 	ori	r6,r6,64
   24ea4:	8180030d 	sth	r6,12(r16)
   24ea8:	00bfffc4 	movi	r2,-1
   24eac:	003fc006 	br	24db0 <__swsetup_r+0x64>

00024eb0 <quorem>:
   24eb0:	defff204 	addi	sp,sp,-56
   24eb4:	dc400515 	stw	r17,20(sp)
   24eb8:	20800417 	ldw	r2,16(r4)
   24ebc:	2c400417 	ldw	r17,16(r5)
   24ec0:	dfc00d15 	stw	ra,52(sp)
   24ec4:	df000c15 	stw	fp,48(sp)
   24ec8:	ddc00b15 	stw	r23,44(sp)
   24ecc:	dd800a15 	stw	r22,40(sp)
   24ed0:	dd400915 	stw	r21,36(sp)
   24ed4:	dd000815 	stw	r20,32(sp)
   24ed8:	dcc00715 	stw	r19,28(sp)
   24edc:	dc800615 	stw	r18,24(sp)
   24ee0:	dc000415 	stw	r16,16(sp)
   24ee4:	d9000115 	stw	r4,4(sp)
   24ee8:	d9400215 	stw	r5,8(sp)
   24eec:	14407616 	blt	r2,r17,250c8 <quorem+0x218>
   24ef0:	8c7fffc4 	addi	r17,r17,-1
   24ef4:	882a90ba 	slli	r21,r17,2
   24ef8:	2f000504 	addi	fp,r5,20
   24efc:	25800504 	addi	r22,r4,20
   24f00:	e565883a 	add	r18,fp,r21
   24f04:	b545883a 	add	r2,r22,r21
   24f08:	95c00017 	ldw	r23,0(r18)
   24f0c:	15000017 	ldw	r20,0(r2)
   24f10:	dd800015 	stw	r22,0(sp)
   24f14:	bdc00044 	addi	r23,r23,1
   24f18:	b80b883a 	mov	r5,r23
   24f1c:	a009883a 	mov	r4,r20
   24f20:	d8800315 	stw	r2,12(sp)
   24f24:	0020f8c0 	call	20f8c <__udivsi3>
   24f28:	1021883a 	mov	r16,r2
   24f2c:	a5c02f36 	bltu	r20,r23,24fec <quorem+0x13c>
   24f30:	e029883a 	mov	r20,fp
   24f34:	002b883a 	mov	r21,zero
   24f38:	002f883a 	mov	r23,zero
   24f3c:	a4c00017 	ldw	r19,0(r20)
   24f40:	800b883a 	mov	r5,r16
   24f44:	b5800104 	addi	r22,r22,4
   24f48:	993fffcc 	andi	r4,r19,65535
   24f4c:	002104c0 	call	2104c <__mulsi3>
   24f50:	9808d43a 	srli	r4,r19,16
   24f54:	800b883a 	mov	r5,r16
   24f58:	156b883a 	add	r21,r2,r21
   24f5c:	002104c0 	call	2104c <__mulsi3>
   24f60:	b0ffff17 	ldw	r3,-4(r22)
   24f64:	a80ad43a 	srli	r5,r21,16
   24f68:	a9bfffcc 	andi	r6,r21,65535
   24f6c:	b989c83a 	sub	r4,r23,r6
   24f70:	19bfffcc 	andi	r6,r3,65535
   24f74:	2189883a 	add	r4,r4,r6
   24f78:	1806d43a 	srli	r3,r3,16
   24f7c:	1145883a 	add	r2,r2,r5
   24f80:	200bd43a 	srai	r5,r4,16
   24f84:	11bfffcc 	andi	r6,r2,65535
   24f88:	1987c83a 	sub	r3,r3,r6
   24f8c:	1947883a 	add	r3,r3,r5
   24f90:	180a943a 	slli	r5,r3,16
   24f94:	213fffcc 	andi	r4,r4,65535
   24f98:	a5000104 	addi	r20,r20,4
   24f9c:	2908b03a 	or	r4,r5,r4
   24fa0:	b13fff15 	stw	r4,-4(r22)
   24fa4:	102ad43a 	srli	r21,r2,16
   24fa8:	182fd43a 	srai	r23,r3,16
   24fac:	953fe32e 	bgeu	r18,r20,24f3c <quorem+0x8c>
   24fb0:	d8c00317 	ldw	r3,12(sp)
   24fb4:	18800017 	ldw	r2,0(r3)
   24fb8:	10000c1e 	bne	r2,zero,24fec <quorem+0x13c>
   24fbc:	d8800017 	ldw	r2,0(sp)
   24fc0:	1d7fff04 	addi	r21,r3,-4
   24fc4:	15400436 	bltu	r2,r21,24fd8 <quorem+0x128>
   24fc8:	00000606 	br	24fe4 <quorem+0x134>
   24fcc:	d8800017 	ldw	r2,0(sp)
   24fd0:	8c7fffc4 	addi	r17,r17,-1
   24fd4:	1540032e 	bgeu	r2,r21,24fe4 <quorem+0x134>
   24fd8:	a8800017 	ldw	r2,0(r21)
   24fdc:	ad7fff04 	addi	r21,r21,-4
   24fe0:	103ffa26 	beq	r2,zero,24fcc <quorem+0x11c>
   24fe4:	d8800117 	ldw	r2,4(sp)
   24fe8:	14400415 	stw	r17,16(r2)
   24fec:	d9400217 	ldw	r5,8(sp)
   24ff0:	d9000117 	ldw	r4,4(sp)
   24ff4:	00296d80 	call	296d8 <__mcmp>
   24ff8:	10002616 	blt	r2,zero,25094 <quorem+0x1e4>
   24ffc:	d9400017 	ldw	r5,0(sp)
   25000:	84000044 	addi	r16,r16,1
   25004:	0005883a 	mov	r2,zero
   25008:	e1000017 	ldw	r4,0(fp)
   2500c:	28c00017 	ldw	r3,0(r5)
   25010:	29400104 	addi	r5,r5,4
   25014:	21bfffcc 	andi	r6,r4,65535
   25018:	1185c83a 	sub	r2,r2,r6
   2501c:	19bfffcc 	andi	r6,r3,65535
   25020:	1185883a 	add	r2,r2,r6
   25024:	2008d43a 	srli	r4,r4,16
   25028:	1806d43a 	srli	r3,r3,16
   2502c:	100fd43a 	srai	r7,r2,16
   25030:	11bfffcc 	andi	r6,r2,65535
   25034:	1907c83a 	sub	r3,r3,r4
   25038:	19c7883a 	add	r3,r3,r7
   2503c:	1808943a 	slli	r4,r3,16
   25040:	1805d43a 	srai	r2,r3,16
   25044:	e7000104 	addi	fp,fp,4
   25048:	2186b03a 	or	r3,r4,r6
   2504c:	28ffff15 	stw	r3,-4(r5)
   25050:	973fed2e 	bgeu	r18,fp,25008 <quorem+0x158>
   25054:	880490ba 	slli	r2,r17,2
   25058:	d9000017 	ldw	r4,0(sp)
   2505c:	2085883a 	add	r2,r4,r2
   25060:	10c00017 	ldw	r3,0(r2)
   25064:	18000b1e 	bne	r3,zero,25094 <quorem+0x1e4>
   25068:	10bfff04 	addi	r2,r2,-4
   2506c:	20800436 	bltu	r4,r2,25080 <quorem+0x1d0>
   25070:	00000606 	br	2508c <quorem+0x1dc>
   25074:	d8c00017 	ldw	r3,0(sp)
   25078:	8c7fffc4 	addi	r17,r17,-1
   2507c:	1880032e 	bgeu	r3,r2,2508c <quorem+0x1dc>
   25080:	10c00017 	ldw	r3,0(r2)
   25084:	10bfff04 	addi	r2,r2,-4
   25088:	183ffa26 	beq	r3,zero,25074 <quorem+0x1c4>
   2508c:	d8800117 	ldw	r2,4(sp)
   25090:	14400415 	stw	r17,16(r2)
   25094:	8005883a 	mov	r2,r16
   25098:	dfc00d17 	ldw	ra,52(sp)
   2509c:	df000c17 	ldw	fp,48(sp)
   250a0:	ddc00b17 	ldw	r23,44(sp)
   250a4:	dd800a17 	ldw	r22,40(sp)
   250a8:	dd400917 	ldw	r21,36(sp)
   250ac:	dd000817 	ldw	r20,32(sp)
   250b0:	dcc00717 	ldw	r19,28(sp)
   250b4:	dc800617 	ldw	r18,24(sp)
   250b8:	dc400517 	ldw	r17,20(sp)
   250bc:	dc000417 	ldw	r16,16(sp)
   250c0:	dec00e04 	addi	sp,sp,56
   250c4:	f800283a 	ret
   250c8:	0005883a 	mov	r2,zero
   250cc:	003ff206 	br	25098 <quorem+0x1e8>

000250d0 <_dtoa_r>:
   250d0:	20801017 	ldw	r2,64(r4)
   250d4:	deffe304 	addi	sp,sp,-116
   250d8:	ddc01a15 	stw	r23,104(sp)
   250dc:	dcc01615 	stw	r19,88(sp)
   250e0:	dc801515 	stw	r18,84(sp)
   250e4:	dc401415 	stw	r17,80(sp)
   250e8:	dc001315 	stw	r16,76(sp)
   250ec:	dfc01c15 	stw	ra,112(sp)
   250f0:	df001b15 	stw	fp,108(sp)
   250f4:	dd801915 	stw	r22,100(sp)
   250f8:	dd401815 	stw	r21,96(sp)
   250fc:	dd001715 	stw	r20,92(sp)
   25100:	d9c00115 	stw	r7,4(sp)
   25104:	dc001f17 	ldw	r16,124(sp)
   25108:	202f883a 	mov	r23,r4
   2510c:	3023883a 	mov	r17,r6
   25110:	2827883a 	mov	r19,r5
   25114:	3025883a 	mov	r18,r6
   25118:	10000826 	beq	r2,zero,2513c <_dtoa_r+0x6c>
   2511c:	21801117 	ldw	r6,68(r4)
   25120:	00c00044 	movi	r3,1
   25124:	100b883a 	mov	r5,r2
   25128:	1986983a 	sll	r3,r3,r6
   2512c:	11800115 	stw	r6,4(r2)
   25130:	10c00215 	stw	r3,8(r2)
   25134:	0028cc80 	call	28cc8 <_Bfree>
   25138:	b8001015 	stw	zero,64(r23)
   2513c:	88018f16 	blt	r17,zero,2577c <_dtoa_r+0x6ac>
   25140:	80000015 	stw	zero,0(r16)
   25144:	889ffc2c 	andhi	r2,r17,32752
   25148:	00dffc34 	movhi	r3,32752
   2514c:	10c19426 	beq	r2,r3,257a0 <_dtoa_r+0x6d0>
   25150:	000d883a 	mov	r6,zero
   25154:	000f883a 	mov	r7,zero
   25158:	9809883a 	mov	r4,r19
   2515c:	900b883a 	mov	r5,r18
   25160:	0034d9c0 	call	34d9c <__eqdf2>
   25164:	1000191e 	bne	r2,zero,251cc <_dtoa_r+0xfc>
   25168:	d8c01e17 	ldw	r3,120(sp)
   2516c:	00800044 	movi	r2,1
   25170:	18800015 	stw	r2,0(r3)
   25174:	d8802017 	ldw	r2,128(sp)
   25178:	1002be26 	beq	r2,zero,25c74 <_dtoa_r+0xba4>
   2517c:	d9002017 	ldw	r4,128(sp)
   25180:	00800134 	movhi	r2,4
   25184:	10a08644 	addi	r2,r2,-32231
   25188:	00c00134 	movhi	r3,4
   2518c:	20800015 	stw	r2,0(r4)
   25190:	18a08604 	addi	r2,r3,-32232
   25194:	d8800215 	stw	r2,8(sp)
   25198:	d8800217 	ldw	r2,8(sp)
   2519c:	dfc01c17 	ldw	ra,112(sp)
   251a0:	df001b17 	ldw	fp,108(sp)
   251a4:	ddc01a17 	ldw	r23,104(sp)
   251a8:	dd801917 	ldw	r22,100(sp)
   251ac:	dd401817 	ldw	r21,96(sp)
   251b0:	dd001717 	ldw	r20,92(sp)
   251b4:	dcc01617 	ldw	r19,88(sp)
   251b8:	dc801517 	ldw	r18,84(sp)
   251bc:	dc401417 	ldw	r17,80(sp)
   251c0:	dc001317 	ldw	r16,76(sp)
   251c4:	dec01d04 	addi	sp,sp,116
   251c8:	f800283a 	ret
   251cc:	d8801104 	addi	r2,sp,68
   251d0:	8820d53a 	srli	r16,r17,20
   251d4:	d8800015 	stw	r2,0(sp)
   251d8:	d9c01204 	addi	r7,sp,72
   251dc:	980b883a 	mov	r5,r19
   251e0:	900d883a 	mov	r6,r18
   251e4:	b809883a 	mov	r4,r23
   251e8:	0029ab40 	call	29ab4 <__d2b>
   251ec:	1039883a 	mov	fp,r2
   251f0:	80017e1e 	bne	r16,zero,257ec <_dtoa_r+0x71c>
   251f4:	dd001117 	ldw	r20,68(sp)
   251f8:	dc001217 	ldw	r16,72(sp)
   251fc:	a421883a 	add	r16,r20,r16
   25200:	80810c84 	addi	r2,r16,1074
   25204:	10c00850 	cmplti	r3,r2,33
   25208:	1802c31e 	bne	r3,zero,25d18 <_dtoa_r+0xc48>
   2520c:	00c01004 	movi	r3,64
   25210:	1887c83a 	sub	r3,r3,r2
   25214:	80810484 	addi	r2,r16,1042
   25218:	88c8983a 	sll	r4,r17,r3
   2521c:	9884d83a 	srl	r2,r19,r2
   25220:	2088b03a 	or	r4,r4,r2
   25224:	00362940 	call	36294 <__floatunsidf>
   25228:	1009883a 	mov	r4,r2
   2522c:	00bf8434 	movhi	r2,65040
   25230:	188b883a 	add	r5,r3,r2
   25234:	00800044 	movi	r2,1
   25238:	843fffc4 	addi	r16,r16,-1
   2523c:	d8800915 	stw	r2,36(sp)
   25240:	000d883a 	mov	r6,zero
   25244:	01cffe34 	movhi	r7,16376
   25248:	00358340 	call	35834 <__subdf3>
   2524c:	0198dbf4 	movhi	r6,25455
   25250:	01cff4f4 	movhi	r7,16339
   25254:	3190d844 	addi	r6,r6,17249
   25258:	39e1e9c4 	addi	r7,r7,-30809
   2525c:	1009883a 	mov	r4,r2
   25260:	180b883a 	mov	r5,r3
   25264:	0034fec0 	call	34fec <__muldf3>
   25268:	01a2d874 	movhi	r6,35681
   2526c:	01cff1f4 	movhi	r7,16327
   25270:	31b22cc4 	addi	r6,r6,-14157
   25274:	39e28a04 	addi	r7,r7,-30168
   25278:	180b883a 	mov	r5,r3
   2527c:	1009883a 	mov	r4,r2
   25280:	0033b7c0 	call	33b7c <__adddf3>
   25284:	8009883a 	mov	r4,r16
   25288:	102b883a 	mov	r21,r2
   2528c:	1823883a 	mov	r17,r3
   25290:	00361dc0 	call	361dc <__floatsidf>
   25294:	019427f4 	movhi	r6,20639
   25298:	01cff4f4 	movhi	r7,16339
   2529c:	319e7ec4 	addi	r6,r6,31227
   252a0:	39d104c4 	addi	r7,r7,17427
   252a4:	1009883a 	mov	r4,r2
   252a8:	180b883a 	mov	r5,r3
   252ac:	0034fec0 	call	34fec <__muldf3>
   252b0:	100d883a 	mov	r6,r2
   252b4:	180f883a 	mov	r7,r3
   252b8:	a809883a 	mov	r4,r21
   252bc:	880b883a 	mov	r5,r17
   252c0:	0033b7c0 	call	33b7c <__adddf3>
   252c4:	1009883a 	mov	r4,r2
   252c8:	180b883a 	mov	r5,r3
   252cc:	1023883a 	mov	r17,r2
   252d0:	182b883a 	mov	r21,r3
   252d4:	003615c0 	call	3615c <__fixdfsi>
   252d8:	000d883a 	mov	r6,zero
   252dc:	000f883a 	mov	r7,zero
   252e0:	8809883a 	mov	r4,r17
   252e4:	a80b883a 	mov	r5,r21
   252e8:	102d883a 	mov	r22,r2
   252ec:	0034f040 	call	34f04 <__ledf2>
   252f0:	10025616 	blt	r2,zero,25c4c <_dtoa_r+0xb7c>
   252f4:	a429c83a 	sub	r20,r20,r16
   252f8:	a0ffffc4 	addi	r3,r20,-1
   252fc:	b08005e8 	cmpgeui	r2,r22,23
   25300:	d8c00315 	stw	r3,12(sp)
   25304:	1002481e 	bne	r2,zero,25c28 <_dtoa_r+0xb58>
   25308:	b00690fa 	slli	r3,r22,3
   2530c:	00800134 	movhi	r2,4
   25310:	10a17e04 	addi	r2,r2,-31240
   25314:	10c5883a 	add	r2,r2,r3
   25318:	11800017 	ldw	r6,0(r2)
   2531c:	11c00117 	ldw	r7,4(r2)
   25320:	9809883a 	mov	r4,r19
   25324:	900b883a 	mov	r5,r18
   25328:	0034f040 	call	34f04 <__ledf2>
   2532c:	10021f0e 	bge	r2,zero,25bac <_dtoa_r+0xadc>
   25330:	d8000815 	stw	zero,32(sp)
   25334:	a0bfffc4 	addi	r2,r20,-1
   25338:	b5bfffc4 	addi	r22,r22,-1
   2533c:	10023e16 	blt	r2,zero,25c38 <_dtoa_r+0xb68>
   25340:	d8000415 	stw	zero,16(sp)
   25344:	b0021d0e 	bge	r22,zero,25bbc <_dtoa_r+0xaec>
   25348:	d8800417 	ldw	r2,16(sp)
   2534c:	d8c00117 	ldw	r3,4(sp)
   25350:	dd800615 	stw	r22,24(sp)
   25354:	1585c83a 	sub	r2,r2,r22
   25358:	d8800415 	stw	r2,16(sp)
   2535c:	0585c83a 	sub	r2,zero,r22
   25360:	d8800715 	stw	r2,28(sp)
   25364:	188002a8 	cmpgeui	r2,r3,10
   25368:	002d883a 	mov	r22,zero
   2536c:	10021b1e 	bne	r2,zero,25bdc <_dtoa_r+0xb0c>
   25370:	18800190 	cmplti	r2,r3,6
   25374:	10026c1e 	bne	r2,zero,25d28 <_dtoa_r+0xc58>
   25378:	18bfff04 	addi	r2,r3,-4
   2537c:	d8800115 	stw	r2,4(sp)
   25380:	0021883a 	mov	r16,zero
   25384:	d8c00117 	ldw	r3,4(sp)
   25388:	188000e0 	cmpeqi	r2,r3,3
   2538c:	1003751e 	bne	r2,zero,26164 <_dtoa_r+0x1094>
   25390:	18800108 	cmpgei	r2,r3,4
   25394:	10021b26 	beq	r2,zero,25c04 <_dtoa_r+0xb34>
   25398:	d8800117 	ldw	r2,4(sp)
   2539c:	10800120 	cmpeqi	r2,r2,4
   253a0:	10025a1e 	bne	r2,zero,25d0c <_dtoa_r+0xc3c>
   253a4:	00800044 	movi	r2,1
   253a8:	d8800515 	stw	r2,20(sp)
   253ac:	d8801d17 	ldw	r2,116(sp)
   253b0:	d8c00617 	ldw	r3,24(sp)
   253b4:	10c5883a 	add	r2,r2,r3
   253b8:	14400044 	addi	r17,r2,1
   253bc:	d8800a15 	stw	r2,40(sp)
   253c0:	880d883a 	mov	r6,r17
   253c4:	04400116 	blt	zero,r17,253cc <_dtoa_r+0x2fc>
   253c8:	01800044 	movi	r6,1
   253cc:	b8001115 	stw	zero,68(r23)
   253d0:	30800610 	cmplti	r2,r6,24
   253d4:	10050c1e 	bne	r2,zero,26808 <_dtoa_r+0x1738>
   253d8:	00c00044 	movi	r3,1
   253dc:	00800104 	movi	r2,4
   253e0:	1085883a 	add	r2,r2,r2
   253e4:	11000504 	addi	r4,r2,20
   253e8:	180b883a 	mov	r5,r3
   253ec:	18c00044 	addi	r3,r3,1
   253f0:	313ffb2e 	bgeu	r6,r4,253e0 <_dtoa_r+0x310>
   253f4:	b9401115 	stw	r5,68(r23)
   253f8:	b809883a 	mov	r4,r23
   253fc:	0028c240 	call	28c24 <_Balloc>
   25400:	d8800215 	stw	r2,8(sp)
   25404:	1004f526 	beq	r2,zero,267dc <_dtoa_r+0x170c>
   25408:	d8800217 	ldw	r2,8(sp)
   2540c:	b8801015 	stw	r2,64(r23)
   25410:	888003e8 	cmpgeui	r2,r17,15
   25414:	1001091e 	bne	r2,zero,2583c <_dtoa_r+0x76c>
